((lp0
F1655495493.841468
aF1655495493.845577
aF1655495493.849446
aF1655495493.852472
aF1655495493.855475
aF1655495493.858242
aF1655495493.860635
aF1655495493.863031
aF1655495493.865272
aF1655495493.867442
aF1655495493.869886
aF1655495493.873027
aF1655495493.875515
aF1655495493.877929
aF1655495493.880837
aF1655495493.883491
aF1655495493.886622
aF1655495493.891677
aF1655495493.919573
aF1655495493.922685
aF1655495493.926079
aF1655495493.928361
aF1655495493.930706
aF1655495493.933574
aF1655495493.935903
aF1655495493.93833
aF1655495493.940561
aF1655495493.943279
aF1655495493.945894
aF1655495493.948499
aF1655495493.951341
aF1655495493.953863
aF1655495493.956379
aF1655495493.960186
aF1655495493.969775
aF1655495493.977214
aF1655495494.008623
aF1655495494.011491
aF1655495494.014074
aF1655495494.016279
aF1655495494.018588
aF1655495494.022306
aF1655495494.029543
aF1655495494.043068
aF1655495494.063021
aF1655495494.065274
aF1655495494.067464
aF1655495494.070012
aF1655495494.072787
aF1655495494.074965
aF1655495494.076998
aF1655495494.080044
aF1655495494.082929
aF1655495494.085473
aF1655495494.088127
aF1655495494.093173
aF1655495494.105676
aF1655495494.109584
aF1655495494.113742
aF1655495494.119163
aF1655495494.124119
aF1655495494.141342
aF1655495494.144065
aF1655495494.147049
aF1655495494.174078
aF1655495494.183413
aF1655495494.186714
aF1655495494.189526
aF1655495494.191923
aF1655495494.194585
aF1655495494.197935
aF1655495494.200011
aF1655495494.202474
aF1655495494.204722
aF1655495494.207052
aF1655495494.209338
aF1655495494.211594
aF1655495494.214585
aF1655495494.217711
aF1655495494.221241
aF1655495494.224529
aF1655495494.231746
aF1655495494.258618
aF1655495494.261762
aF1655495494.265027
aF1655495494.267672
aF1655495494.269812
aF1655495494.271904
aF1655495494.27417
aF1655495494.27687
aF1655495494.279945
aF1655495494.283365
aF1655495494.286123
aF1655495494.288783
aF1655495494.291776
aF1655495494.295377
aF1655495494.306807
aF1655495494.336184
aF1655495494.348755
aF1655495494.39285
aF1655495494.403446
aF1655495494.410579
aF1655495494.441137
aF1655495494.444114
aF1655495494.446362
aF1655495494.448443
aF1655495494.450548
aF1655495494.452649
aF1655495494.455729
aF1655495494.465833
aF1655495494.469781
aF1655495494.477231
aF1655495494.483012
aF1655495494.526557
aF1655495494.528794
aF1655495494.530835
aF1655495494.532905
aF1655495494.534804
aF1655495494.536892
aF1655495494.539333
aF1655495494.541988
aF1655495494.544281
aF1655495494.546705
aF1655495494.549088
aF1655495494.551633
aF1655495494.554197
aF1655495494.558168
aF1655495494.571837
aF1655495494.589228
aF1655495494.599021
aF1655495494.602441
aF1655495494.605421
aF1655495494.607933
aF1655495494.613159
aF1655495494.615557
aF1655495494.618176
aF1655495494.632682
aF1655495494.660399
aF1655495494.672924
aF1655495494.677572
aF1655495494.681208
aF1655495494.684148
aF1655495494.729491
aF1655495494.735123
aF1655495494.739477
aF1655495494.745717
aF1655495494.779384
aF1655495494.782465
aF1655495494.784937
aF1655495494.787615
aF1655495494.790758
aF1655495494.793305
aF1655495494.795795
aF1655495494.798169
aF1655495494.80073
aF1655495494.803407
aF1655495494.806384
aF1655495494.808843
aF1655495494.811265
aF1655495494.815026
aF1655495494.818732
aF1655495494.831344
aF1655495494.836787
aF1655495494.848288
aF1655495494.851599
aF1655495494.855782
aF1655495494.858563
aF1655495494.860953
aF1655495494.863428
aF1655495494.866054
aF1655495494.868854
aF1655495494.871528
aF1655495494.874114
aF1655495494.876559
aF1655495494.8796
aF1655495494.883093
aF1655495494.913259
aF1655495494.917324
aF1655495494.919943
aF1655495494.922481
aF1655495494.924763
aF1655495494.927753
aF1655495494.930641
aF1655495494.933115
aF1655495494.935618
aF1655495494.937844
aF1655495494.940195
aF1655495494.942241
aF1655495494.944342
aF1655495494.946431
aF1655495494.9488
aF1655495494.951072
aF1655495494.953575
aF1655495494.956154
aF1655495494.966707
aF1655495494.974062
aF1655495494.98729
aF1655495494.996648
aF1655495494.998888
aF1655495495.001109
aF1655495495.003662
aF1655495495.006684
aF1655495495.0092
aF1655495495.011632
aF1655495495.014047
aF1655495495.016683
aF1655495495.019398
aF1655495495.022121
aF1655495495.024597
aF1655495495.027183
aF1655495495.029381
aF1655495495.03153
aF1655495495.033878
aF1655495495.035963
aF1655495495.03833
aF1655495495.04128
aF1655495495.044124
aF1655495495.047338
aF1655495495.050267
aF1655495495.055458
aF1655495495.063715
aF1655495495.088535
aF1655495495.091948
aF1655495495.094993
aF1655495495.09756
aF1655495495.099895
aF1655495495.102345
aF1655495495.104453
aF1655495495.106699
aF1655495495.109241
aF1655495495.112349
aF1655495495.115283
aF1655495495.118623
aF1655495495.12308
aF1655495495.130096
aF1655495495.136256
aF1655495495.144083
aF1655495495.153002
aF1655495495.156491
aF1655495495.158861
aF1655495495.161616
aF1655495495.16393
aF1655495495.16617
aF1655495495.16875
aF1655495495.17128
aF1655495495.174217
aF1655495495.177075
aF1655495495.180785
aF1655495495.184754
aF1655495495.2019
aF1655495495.207713
aF1655495495.224029
aF1655495495.227646
aF1655495495.230361
aF1655495495.232736
aF1655495495.235074
aF1655495495.237932
aF1655495495.243517
aF1655495495.24891
aF1655495495.256779
aF1655495495.270564
aF1655495495.294503
aF1655495495.297298
aF1655495495.300471
aF1655495495.319616
aF1655495495.345833
aF1655495495.353166
aF1655495495.360563
aF1655495495.36426
aF1655495495.375238
aF1655495495.381519
aF1655495495.400457
aF1655495495.403939
aF1655495495.419389
aF1655495495.42311
aF1655495495.429968
aF1655495495.436119
aF1655495495.46191
aF1655495495.464388
aF1655495495.466407
aF1655495495.468351
aF1655495495.47048
aF1655495495.480013
aF1655495495.487437
aF1655495495.51606
aF1655495495.519634
aF1655495495.523276
aF1655495495.526233
aF1655495495.529082
aF1655495495.531497
aF1655495495.53396
aF1655495495.536446
aF1655495495.539042
aF1655495495.541729
aF1655495495.544433
aF1655495495.546888
aF1655495495.552848
aF1655495495.589593
aF1655495495.609561
aF1655495495.61848
aF1655495495.641225
aF1655495495.663727
aF1655495495.680476
aF1655495495.685154
aF1655495495.690304
aF1655495495.695731
aF1655495495.700109
aF1655495495.705965
aF1655495495.709362
aF1655495495.714438
aF1655495495.71719
aF1655495495.719545
aF1655495495.72321
aF1655495495.725884
aF1655495495.728466
aF1655495495.731355
aF1655495495.734071
aF1655495495.737283
aF1655495495.74041
aF1655495495.744334
aF1655495495.749662
aF1655495495.75817
aF1655495495.763688
aF1655495495.767696
aF1655495495.78372
aF1655495495.78687
aF1655495495.790755
aF1655495495.797261
aF1655495495.800345
aF1655495495.809579
aF1655495495.849898
aF1655495495.858731
aF1655495495.865503
aF1655495495.870166
aF1655495495.872696
aF1655495495.875266
aF1655495495.877358
aF1655495495.880046
aF1655495495.889394
aF1655495495.897044
aF1655495495.912301
aF1655495495.924399
aF1655495495.927018
aF1655495495.929481
aF1655495495.931938
aF1655495495.934275
aF1655495495.937058
aF1655495495.940948
aF1655495495.944607
aF1655495495.949306
aF1655495495.973518
aF1655495495.97631
aF1655495495.9794
aF1655495495.982711
aF1655495496.003078
aF1655495496.005914
aF1655495496.012242
aF1655495496.022031
aF1655495496.027382
aF1655495496.042637
aF1655495496.045501
aF1655495496.048676
aF1655495496.051524
aF1655495496.054004
aF1655495496.056693
aF1655495496.059024
aF1655495496.061179
aF1655495496.063337
aF1655495496.065579
aF1655495496.067744
aF1655495496.069825
aF1655495496.072261
aF1655495496.075097
aF1655495496.086967
aF1655495496.117371
aF1655495496.120502
aF1655495496.130509
aF1655495496.133023
aF1655495496.138592
aF1655495496.141161
aF1655495496.144543
aF1655495496.148584
aF1655495496.154041
aF1655495496.161298
aF1655495496.165806
aF1655495496.175969
aF1655495496.179842
aF1655495496.185734
aF1655495496.189063
aF1655495496.191747
aF1655495496.194411
aF1655495496.196887
aF1655495496.199195
aF1655495496.201684
aF1655495496.204391
aF1655495496.207045
aF1655495496.209613
aF1655495496.212093
aF1655495496.214161
aF1655495496.216799
aF1655495496.226839
aF1655495496.257596
aF1655495496.260842
aF1655495496.263667
aF1655495496.266488
aF1655495496.270093
aF1655495496.27297
aF1655495496.275128
aF1655495496.277209
aF1655495496.28109
aF1655495496.286832
aF1655495496.300286
aF1655495496.326553
aF1655495496.335063
aF1655495496.338556
aF1655495496.342728
aF1655495496.369074
aF1655495496.37207
aF1655495496.375055
aF1655495496.377693
aF1655495496.380884
aF1655495496.383405
aF1655495496.385632
aF1655495496.388245
aF1655495496.390345
aF1655495496.392831
aF1655495496.395634
aF1655495496.398057
aF1655495496.40032
aF1655495496.402838
aF1655495496.405368
aF1655495496.407785
aF1655495496.410106
aF1655495496.412368
aF1655495496.414768
aF1655495496.417813
aF1655495496.421057
aF1655495496.460065
aF1655495496.462534
aF1655495496.464811
aF1655495496.466935
aF1655495496.469067
aF1655495496.471679
aF1655495496.474681
aF1655495496.477396
aF1655495496.479799
aF1655495496.48223
aF1655495496.484885
aF1655495496.487836
aF1655495496.491665
aF1655495496.499694
aF1655495496.533018
aF1655495496.536085
aF1655495496.538763
aF1655495496.541391
aF1655495496.544185
aF1655495496.547407
aF1655495496.550803
aF1655495496.583757
aF1655495496.588125
aF1655495496.591553
aF1655495496.594328
aF1655495496.59708
aF1655495496.599508
aF1655495496.602222
aF1655495496.605157
aF1655495496.607798
aF1655495496.609974
aF1655495496.612065
aF1655495496.615004
aF1655495496.619167
aF1655495496.625221
aF1655495496.631647
aF1655495496.637663
aF1655495496.647727
aF1655495496.650386
aF1655495496.653447
aF1655495496.656537
aF1655495496.659316
aF1655495496.662142
aF1655495496.665045
aF1655495496.667929
aF1655495496.671248
aF1655495496.673779
aF1655495496.677092
aF1655495496.683108
aF1655495496.692327
aF1655495496.698706
aF1655495496.732242
aF1655495496.736432
aF1655495496.739337
aF1655495496.74212
aF1655495496.744679
aF1655495496.747292
aF1655495496.7498
aF1655495496.754637
aF1655495496.801753
aF1655495496.806963
aF1655495496.81047
aF1655495496.813882
aF1655495496.816986
aF1655495496.820072
aF1655495496.825904
aF1655495496.829285
aF1655495496.85018
aF1655495496.856591
aF1655495496.861506
aF1655495496.865429
aF1655495496.8687
aF1655495496.873236
aF1655495496.876839
aF1655495496.88022
aF1655495496.883723
aF1655495496.887045
aF1655495496.891223
aF1655495496.899401
aF1655495496.907883
aF1655495496.944434
aF1655495496.953871
aF1655495496.993465
aF1655495496.995735
aF1655495496.998139
aF1655495497.000604
aF1655495497.003111
aF1655495497.005837
aF1655495497.008818
aF1655495497.011262
aF1655495497.013806
aF1655495497.01631
aF1655495497.019884
aF1655495497.026514
aF1655495497.052834
aF1655495497.056996
aF1655495497.060026
aF1655495497.062875
aF1655495497.065903
aF1655495497.068697
aF1655495497.071367
aF1655495497.074127
aF1655495497.076908
aF1655495497.07995
aF1655495497.083883
aF1655495497.08767
aF1655495497.09558
aF1655495497.103446
aF1655495497.113745
aF1655495497.117026
aF1655495497.119926
aF1655495497.123526
aF1655495497.125849
aF1655495497.128082
aF1655495497.130616
aF1655495497.132904
aF1655495497.135056
aF1655495497.137176
aF1655495497.139343
aF1655495497.141788
aF1655495497.145098
aF1655495497.147284
aF1655495497.149524
aF1655495497.151636
aF1655495497.153978
aF1655495497.156332
aF1655495497.158553
aF1655495497.163177
aF1655495497.172677
aF1655495497.201805
aF1655495497.204993
aF1655495497.207578
aF1655495497.209749
aF1655495497.212364
aF1655495497.2145
aF1655495497.216743
aF1655495497.218909
aF1655495497.221038
aF1655495497.223466
aF1655495497.228095
aF1655495497.234798
aF1655495497.242648
aF1655495497.253807
aF1655495497.263658
aF1655495497.268418
aF1655495497.270842
aF1655495497.273285
aF1655495497.275987
aF1655495497.278818
aF1655495497.283774
aF1655495497.28653
aF1655495497.289649
aF1655495497.29237
aF1655495497.295098
aF1655495497.29769
aF1655495497.299713
aF1655495497.303215
aF1655495497.340791
aF1655495497.34399
aF1655495497.346931
aF1655495497.34944
aF1655495497.352044
aF1655495497.354995
aF1655495497.358483
aF1655495497.361306
aF1655495497.363786
aF1655495497.368953
aF1655495497.375969
aF1655495497.387208
aF1655495497.401875
aF1655495497.405359
aF1655495497.408157
aF1655495497.411281
aF1655495497.415151
aF1655495497.417742
aF1655495497.420288
aF1655495497.42253
aF1655495497.424613
aF1655495497.426745
aF1655495497.429512
aF1655495497.432409
aF1655495497.435434
aF1655495497.440681
aF1655495497.446981
aF1655495497.456876
aF1655495497.486306
aF1655495497.489226
aF1655495497.492845
aF1655495497.498263
aF1655495497.503116
aF1655495497.508992
aF1655495497.51477
aF1655495497.525075
aF1655495497.537374
aF1655495497.549454
aF1655495497.582415
aF1655495497.598687
aF1655495497.601265
aF1655495497.603561
aF1655495497.606339
aF1655495497.611746
aF1655495497.61403
aF1655495497.616519
aF1655495497.619171
aF1655495497.621882
aF1655495497.624598
aF1655495497.627138
aF1655495497.630609
aF1655495497.635113
aF1655495497.642206
aF1655495497.655778
aF1655495497.666501
aF1655495497.674414
aF1655495497.686826
aF1655495497.697591
aF1655495497.736223
aF1655495497.739106
aF1655495497.74786
aF1655495497.753568
aF1655495497.761054
aF1655495497.774888
aF1655495497.777539
aF1655495497.781886
aF1655495497.784705
aF1655495497.787292
aF1655495497.790909
aF1655495497.793632
aF1655495497.795819
aF1655495497.798417
aF1655495497.800866
aF1655495497.804646
aF1655495497.80752
aF1655495497.809942
aF1655495497.812093
aF1655495497.814243
aF1655495497.816535
aF1655495497.819759
aF1655495497.824278
aF1655495497.830738
aF1655495497.838486
aF1655495497.843163
aF1655495497.847451
aF1655495497.864002
aF1655495497.867234
aF1655495497.869917
aF1655495497.872906
aF1655495497.875303
aF1655495497.877535
aF1655495497.880675
aF1655495497.883619
aF1655495497.88651
aF1655495497.889081
aF1655495497.891974
aF1655495497.894947
aF1655495497.901164
aF1655495497.908968
aF1655495497.916912
aF1655495497.927333
aF1655495497.930638
aF1655495497.933668
aF1655495497.936382
aF1655495497.939578
aF1655495497.942342
aF1655495497.944867
aF1655495497.947158
aF1655495497.949358
aF1655495497.951552
aF1655495497.954253
aF1655495497.957029
aF1655495497.980772
aF1655495498.007254
aF1655495498.009907
aF1655495498.012156
aF1655495498.014461
aF1655495498.017538
aF1655495498.020482
aF1655495498.023397
aF1655495498.026712
aF1655495498.036658
aF1655495498.052737
aF1655495498.056595
aF1655495498.059814
aF1655495498.062502
aF1655495498.065474
aF1655495498.06864
aF1655495498.071919
aF1655495498.07452
aF1655495498.077417
aF1655495498.080571
aF1655495498.084282
aF1655495498.088378
aF1655495498.096694
aF1655495498.102164
aF1655495498.107795
aF1655495498.110991
aF1655495498.11481
aF1655495498.119224
aF1655495498.122987
aF1655495498.125846
aF1655495498.128595
aF1655495498.131083
aF1655495498.135216
aF1655495498.138197
aF1655495498.140725
aF1655495498.143428
aF1655495498.147366
aF1655495498.150771
aF1655495498.155412
aF1655495498.159424
aF1655495498.166693
aF1655495498.173216
aF1655495498.179763
aF1655495498.189585
aF1655495498.205047
aF1655495498.209526
aF1655495498.213512
aF1655495498.220605
aF1655495498.225589
aF1655495498.230041
aF1655495498.238
aF1655495498.28056
aF1655495498.283758
aF1655495498.286162
aF1655495498.288453
aF1655495498.291422
aF1655495498.293748
aF1655495498.296617
aF1655495498.301072
aF1655495498.310048
aF1655495498.317163
aF1655495498.32955
aF1655495498.333268
aF1655495498.338332
aF1655495498.34153
aF1655495498.351488
aF1655495498.355211
aF1655495498.360246
aF1655495498.365933
aF1655495498.370246
aF1655495498.389462
aF1655495498.392351
aF1655495498.394851
aF1655495498.397498
aF1655495498.400013
aF1655495498.40248
aF1655495498.405195
aF1655495498.407575
aF1655495498.409737
aF1655495498.412037
aF1655495498.414577
aF1655495498.417156
aF1655495498.419671
aF1655495498.421817
aF1655495498.423839
aF1655495498.426144
aF1655495498.430224
aF1655495498.435055
aF1655495498.443107
aF1655495498.450768
aF1655495498.467124
aF1655495498.469882
aF1655495498.472769
aF1655495498.475125
aF1655495498.477356
aF1655495498.479737
aF1655495498.482361
aF1655495498.484957
aF1655495498.487108
aF1655495498.489714
aF1655495498.531782
aF1655495498.53409
aF1655495498.536248
aF1655495498.538891
aF1655495498.541388
aF1655495498.543762
aF1655495498.545944
aF1655495498.548243
aF1655495498.550489
aF1655495498.553068
aF1655495498.569352
aF1655495498.58454
aF1655495498.611323
aF1655495498.623839
aF1655495498.638859
aF1655495498.644137
aF1655495498.66437
aF1655495498.667087
aF1655495498.67041
aF1655495498.678146
aF1655495498.710698
aF1655495498.731109
aF1655495498.733713
aF1655495498.748239
aF1655495498.79924
aF1655495498.813694
aF1655495498.819981
aF1655495498.836307
aF1655495498.842131
aF1655495498.849358
aF1655495498.852173
aF1655495498.855225
aF1655495498.857918
aF1655495498.860622
aF1655495498.863305
aF1655495498.866173
aF1655495498.870269
aF1655495498.873981
aF1655495498.877505
aF1655495498.880971
aF1655495498.905782
aF1655495498.908854
aF1655495498.9114
aF1655495498.915267
aF1655495498.917887
aF1655495498.920338
aF1655495498.923251
aF1655495498.925604
aF1655495498.928344
aF1655495498.931442
aF1655495498.938715
aF1655495498.942821
aF1655495498.963687
aF1655495498.96759
aF1655495498.970325
aF1655495498.973666
aF1655495498.976292
aF1655495498.978695
aF1655495498.981692
aF1655495498.984033
aF1655495498.986524
aF1655495498.98921
aF1655495498.9921
aF1655495498.994696
aF1655495498.9974
aF1655495499.000252
aF1655495499.003033
aF1655495499.005973
aF1655495499.009671
aF1655495499.019579
aF1655495499.041755
aF1655495499.044496
aF1655495499.047263
aF1655495499.049847
aF1655495499.052309
aF1655495499.055968
aF1655495499.058675
aF1655495499.061041
aF1655495499.063775
aF1655495499.066279
aF1655495499.069204
aF1655495499.071726
aF1655495499.075766
aF1655495499.079619
aF1655495499.085698
aF1655495499.099731
aF1655495499.102844
aF1655495499.106407
aF1655495499.109323
aF1655495499.111893
aF1655495499.115519
aF1655495499.11855
aF1655495499.121212
aF1655495499.123788
aF1655495499.12653
aF1655495499.129116
aF1655495499.131866
aF1655495499.13446
aF1655495499.137053
aF1655495499.139708
aF1655495499.147975
aF1655495499.155493
aF1655495499.163553
aF1655495499.182117
aF1655495499.18549
aF1655495499.188976
aF1655495499.198791
aF1655495499.20146
aF1655495499.204208
aF1655495499.207142
aF1655495499.210176
aF1655495499.214277
aF1655495499.223726
aF1655495499.228252
aF1655495499.23997
aF1655495499.243084
aF1655495499.251734
aF1655495499.25499
aF1655495499.258197
aF1655495499.261169
aF1655495499.26406
aF1655495499.266891
aF1655495499.2703
aF1655495499.273662
aF1655495499.27775
aF1655495499.287943
aF1655495499.313389
aF1655495499.316034
aF1655495499.318458
aF1655495499.320848
aF1655495499.323494
aF1655495499.326054
aF1655495499.33342
aF1655495499.361827
aF1655495499.37114
aF1655495499.374262
aF1655495499.376677
aF1655495499.378955
aF1655495499.38173
aF1655495499.3841
aF1655495499.386624
aF1655495499.389503
aF1655495499.400705
aF1655495499.403221
aF1655495499.406265
aF1655495499.408476
aF1655495499.410509
aF1655495499.412607
aF1655495499.41631
aF1655495499.423971
aF1655495499.44458
aF1655495499.448037
aF1655495499.450857
aF1655495499.453258
aF1655495499.455604
aF1655495499.458954
aF1655495499.461659
aF1655495499.464154
aF1655495499.466621
aF1655495499.469035
aF1655495499.471739
aF1655495499.474055
aF1655495499.476087
aF1655495499.478182
aF1655495499.480353
aF1655495499.482932
aF1655495499.485783
aF1655495499.489606
aF1655495499.49365
aF1655495499.519855
aF1655495499.524604
aF1655495499.527623
aF1655495499.530425
aF1655495499.53321
aF1655495499.53602
aF1655495499.539002
aF1655495499.551104
aF1655495499.609307
aF1655495499.612528
aF1655495499.615472
aF1655495499.627789
aF1655495499.633351
aF1655495499.679549
aF1655495499.684941
aF1655495499.687991
aF1655495499.716112
aF1655495499.729229
aF1655495499.741595
aF1655495499.792851
aF1655495499.796582
aF1655495499.799956
aF1655495499.805918
aF1655495499.809425
aF1655495499.812904
aF1655495499.816656
aF1655495499.820562
aF1655495499.82505
aF1655495499.828343
aF1655495499.831475
aF1655495499.834521
aF1655495499.878417
aF1655495499.88158
aF1655495499.884362
aF1655495499.88901
aF1655495499.942442
aF1655495499.949332
aF1655495499.95207
aF1655495499.956952
aF1655495499.96039
aF1655495499.986221
aF1655495499.99361
aF1655495499.997138
aF1655495500.001642
aF1655495500.006227
aF1655495500.008992
aF1655495500.011765
aF1655495500.014321
aF1655495500.016911
aF1655495500.019528
aF1655495500.023918
aF1655495500.028257
aF1655495500.032755
aF1655495500.061848
aF1655495500.065233
aF1655495500.068205
aF1655495500.070785
aF1655495500.073572
aF1655495500.076324
aF1655495500.079003
aF1655495500.082393
aF1655495500.085537
aF1655495500.088889
aF1655495500.091517
aF1655495500.094129
aF1655495500.098597
aF1655495500.104903
aF1655495500.123711
aF1655495500.12665
aF1655495500.129124
aF1655495500.131684
aF1655495500.134595
aF1655495500.137084
aF1655495500.139392
aF1655495500.141732
aF1655495500.143894
aF1655495500.146513
aF1655495500.149516
aF1655495500.152643
aF1655495500.155549
aF1655495500.158046
aF1655495500.160465
aF1655495500.164942
aF1655495500.167771
aF1655495500.170707
aF1655495500.172895
aF1655495500.174865
aF1655495500.176869
aF1655495500.179232
aF1655495500.182254
aF1655495500.187719
aF1655495500.194271
aF1655495500.199236
aF1655495500.209654
aF1655495500.234078
aF1655495500.236453
aF1655495500.238671
aF1655495500.241438
aF1655495500.244358
aF1655495500.246857
aF1655495500.25045
aF1655495500.253248
aF1655495500.259086
aF1655495500.27832
aF1655495500.283297
aF1655495500.2867
aF1655495500.290008
aF1655495500.295005
aF1655495500.297723
aF1655495500.300322
aF1655495500.302871
aF1655495500.305597
aF1655495500.308136
aF1655495500.31039
aF1655495500.31298
aF1655495500.335221
aF1655495500.355769
aF1655495500.365279
aF1655495500.368087
aF1655495500.372312
aF1655495500.376509
aF1655495500.389613
aF1655495500.410373
aF1655495500.413479
aF1655495500.4165
aF1655495500.421297
aF1655495500.425792
aF1655495500.431166
aF1655495500.458434
aF1655495500.464433
aF1655495500.467292
aF1655495500.470298
aF1655495500.474255
aF1655495500.477142
aF1655495500.47939
aF1655495500.486785
aF1655495500.491932
aF1655495500.501916
aF1655495500.509456
aF1655495500.525457
aF1655495504.473918
aF1655495504.480039
aF1655495504.485097
aF1655495504.512234
aF1655495504.521413
aF1655495504.526596
aF1655495504.529249
aF1655495504.531702
aF1655495504.534394
aF1655495504.53708
aF1655495504.540039
aF1655495504.56341
aF1655495504.567122
aF1655495504.570052
aF1655495504.573312
aF1655495504.576302
aF1655495504.578872
aF1655495504.584508
aF1655495504.589351
aF1655495504.593873
aF1655495504.601491
aF1655495504.604547
aF1655495504.608064
aF1655495504.637221
aF1655495504.646679
aF1655495504.64914
aF1655495504.652119
aF1655495504.655175
aF1655495504.658018
aF1655495504.661382
aF1655495504.663596
aF1655495504.665686
aF1655495504.667998
aF1655495504.67024
aF1655495504.672773
aF1655495504.675067
aF1655495504.681528
aF1655495504.706789
aF1655495504.717109
aF1655495504.729241
aF1655495504.736288
aF1655495504.740379
aF1655495504.7431
aF1655495504.754106
aF1655495504.774064
aF1655495504.78351
aF1655495504.789164
aF1655495504.791345
aF1655495504.793829
aF1655495504.796818
aF1655495504.806816
aF1655495504.851583
aF1655495504.85413
aF1655495504.856194
aF1655495504.858467
aF1655495504.860674
aF1655495504.863401
aF1655495504.865863
aF1655495504.868499
aF1655495504.870742
aF1655495504.873598
aF1655495504.878637
aF1655495504.882598
aF1655495504.887813
aF1655495504.917489
aF1655495504.927736
aF1655495504.934933
aF1655495504.940411
aF1655495504.948009
aF1655495504.95177
aF1655495504.957203
aF1655495504.963045
aF1655495504.966272
aF1655495504.97168
aF1655495504.979418
aF1655495504.983774
aF1655495504.989656
aF1655495504.992118
aF1655495504.994305
aF1655495504.996674
aF1655495505.005245
aF1655495505.007932
aF1655495505.010605
aF1655495505.013483
aF1655495505.016795
aF1655495505.020478
aF1655495505.029948
aF1655495505.055848
aF1655495505.059324
aF1655495505.061609
aF1655495505.063756
aF1655495505.066636
aF1655495505.069307
aF1655495505.071929
aF1655495505.07468
aF1655495505.076975
aF1655495505.079447
aF1655495505.081712
aF1655495505.08443
aF1655495505.088568
aF1655495505.116913
aF1655495505.121585
aF1655495505.123825
aF1655495505.126193
aF1655495505.128866
aF1655495505.131457
aF1655495505.13388
aF1655495505.136353
aF1655495505.144585
aF1655495505.150545
aF1655495505.154419
aF1655495505.162278
aF1655495505.167983
aF1655495505.175164
aF1655495505.185057
aF1655495505.189177
aF1655495505.192057
aF1655495505.19922
aF1655495505.20179
aF1655495505.204274
aF1655495505.212737
aF1655495505.217532
aF1655495505.231727
aF1655495505.249204
aF1655495505.255324
aF1655495505.258144
aF1655495505.26057
aF1655495505.271828
aF1655495505.279419
aF1655495505.287262
aF1655495505.291574
aF1655495505.297058
aF1655495505.303137
aF1655495505.307122
aF1655495505.32229
aF1655495505.325402
aF1655495505.329159
aF1655495505.331348
aF1655495505.33354
aF1655495505.335674
aF1655495505.337813
aF1655495505.339879
aF1655495505.341838
aF1655495505.343989
aF1655495505.346221
aF1655495505.348805
aF1655495505.351196
aF1655495505.35372
aF1655495505.356663
aF1655495505.359255
aF1655495505.361615
aF1655495505.363925
aF1655495505.366319
aF1655495505.369142
aF1655495505.375125
aF1655495505.396367
aF1655495505.401165
aF1655495505.425389
aF1655495505.471894
aF1655495505.475754
aF1655495505.478818
aF1655495505.481819
aF1655495505.485753
aF1655495505.490693
aF1655495505.494428
aF1655495505.498969
aF1655495505.5064
aF1655495505.519407
aF1655495505.523671
aF1655495505.536927
aF1655495505.540268
aF1655495505.542703
aF1655495505.545364
aF1655495505.547812
aF1655495505.551032
aF1655495505.554425
aF1655495505.55816
aF1655495505.563159
aF1655495505.577728
aF1655495505.585422
aF1655495505.588355
aF1655495505.590795
aF1655495505.593348
aF1655495505.596248
aF1655495505.59855
aF1655495505.60091
aF1655495505.609544
aF1655495505.616873
aF1655495505.644888
aF1655495505.648599
aF1655495505.651465
aF1655495505.655302
aF1655495505.662226
aF1655495505.664393
aF1655495505.666423
aF1655495505.668459
aF1655495505.670444
aF1655495505.673074
aF1655495505.675476
aF1655495505.677588
aF1655495505.679935
aF1655495505.68679
aF1655495505.691414
aF1655495505.701128
aF1655495505.704625
aF1655495505.707116
aF1655495505.710499
aF1655495505.735739
aF1655495505.738748
aF1655495505.741312
aF1655495505.743945
aF1655495505.746514
aF1655495505.750498
aF1655495505.755184
aF1655495505.760359
aF1655495505.764601
aF1655495505.786867
aF1655495505.797645
aF1655495505.799857
aF1655495505.805518
aF1655495505.812402
aF1655495505.818922
aF1655495505.854975
aF1655495505.858186
aF1655495505.861027
aF1655495505.863664
aF1655495505.866277
aF1655495505.869213
aF1655495505.873561
aF1655495505.876548
aF1655495505.880228
aF1655495505.905995
aF1655495505.909277
aF1655495505.911927
aF1655495505.914973
aF1655495505.918186
aF1655495505.921052
aF1655495505.923855
aF1655495505.926516
aF1655495505.928772
aF1655495505.931124
aF1655495505.933637
aF1655495505.936642
aF1655495505.939262
aF1655495505.942281
aF1655495505.945758
aF1655495505.948883
aF1655495505.952491
aF1655495505.968808
aF1655495505.97391
aF1655495505.976932
aF1655495505.979279
aF1655495505.983175
aF1655495505.985929
aF1655495505.988939
aF1655495505.991555
aF1655495505.993746
aF1655495505.995729
aF1655495505.998146
aF1655495506.000425
aF1655495506.003214
aF1655495506.005969
aF1655495506.008139
aF1655495506.010282
aF1655495506.013107
aF1655495506.015712
aF1655495506.019277
aF1655495506.027206
aF1655495506.057441
aF1655495506.059699
aF1655495506.062103
aF1655495506.064577
aF1655495506.066862
aF1655495506.069113
aF1655495506.071651
aF1655495506.074001
aF1655495506.077419
aF1655495506.080604
aF1655495506.085452
aF1655495506.090166
aF1655495506.094799
aF1655495506.098393
aF1655495506.101826
aF1655495506.105339
aF1655495506.11252
aF1655495506.127269
aF1655495506.130349
aF1655495506.133152
aF1655495506.135978
aF1655495506.139449
aF1655495506.142341
aF1655495506.145067
aF1655495506.14764
aF1655495506.151421
aF1655495506.154726
aF1655495506.160595
aF1655495506.178353
aF1655495506.181945
aF1655495506.187223
aF1655495506.191482
aF1655495506.194878
aF1655495506.19736
aF1655495506.199905
aF1655495506.202661
aF1655495506.205689
aF1655495506.208687
aF1655495506.21126
aF1655495506.213873
aF1655495506.21696
aF1655495506.221141
aF1655495506.226715
aF1655495506.23087
aF1655495506.236136
aF1655495506.24905
aF1655495506.251982
aF1655495506.2551
aF1655495506.258097
aF1655495506.26085
aF1655495506.263177
aF1655495506.265603
aF1655495506.268067
aF1655495506.271257
aF1655495506.274657
aF1655495506.277511
aF1655495506.279693
aF1655495506.284827
aF1655495506.298186
aF1655495506.309443
aF1655495506.312512
aF1655495506.31555
aF1655495506.319681
aF1655495506.322726
aF1655495506.325287
aF1655495506.327438
aF1655495506.329384
aF1655495506.331377
aF1655495506.334166
aF1655495506.336676
aF1655495506.339245
aF1655495506.342096
aF1655495506.344961
aF1655495506.34847
aF1655495506.366649
aF1655495506.371418
aF1655495506.374576
aF1655495506.377497
aF1655495506.380798
aF1655495506.388488
aF1655495506.390741
aF1655495506.393036
aF1655495506.395246
aF1655495506.397427
aF1655495506.399514
aF1655495506.402058
aF1655495506.404863
aF1655495506.407413
aF1655495506.410803
aF1655495506.414196
aF1655495506.450144
aF1655495506.454102
aF1655495506.45715
aF1655495506.459261
aF1655495506.461423
aF1655495506.463461
aF1655495506.465622
aF1655495506.467829
aF1655495506.470007
aF1655495506.472147
aF1655495506.474796
aF1655495506.477785
aF1655495506.480381
aF1655495506.485123
aF1655495506.488816
aF1655495506.506275
aF1655495506.50968
aF1655495506.51236
aF1655495506.516029
aF1655495506.518384
aF1655495506.52121
aF1655495506.523743
aF1655495506.526033
aF1655495506.528375
aF1655495506.531136
aF1655495506.533903
aF1655495506.537799
aF1655495506.541054
aF1655495506.544076
aF1655495506.547502
aF1655495506.560534
aF1655495506.564589
aF1655495506.590214
aF1655495506.592809
aF1655495506.595669
aF1655495506.598696
aF1655495506.601668
aF1655495506.60475
aF1655495506.60802
aF1655495506.610946
aF1655495506.613686
aF1655495506.6381
aF1655495506.642049
aF1655495506.645093
aF1655495506.649707
aF1655495506.652565
aF1655495506.655287
aF1655495506.658084
aF1655495506.660732
aF1655495506.666842
aF1655495506.669753
aF1655495506.67823
aF1655495506.683114
aF1655495506.695387
aF1655495506.698968
aF1655495506.704185
aF1655495506.727654
aF1655495506.732559
aF1655495506.735699
aF1655495506.74597
aF1655495506.755073
aF1655495506.759781
aF1655495506.786744
aF1655495506.789613
aF1655495506.791971
aF1655495506.794552
aF1655495506.796864
aF1655495506.80363
aF1655495506.809439
aF1655495506.81568
aF1655495506.822055
aF1655495506.835104
aF1655495506.842076
aF1655495506.852623
aF1655495506.855149
aF1655495506.85764
aF1655495506.85986
aF1655495506.862043
aF1655495506.863974
aF1655495506.865885
aF1655495506.868015
aF1655495506.870104
aF1655495506.872575
aF1655495506.875164
aF1655495506.878939
aF1655495506.886195
aF1655495506.891068
aF1655495506.89816
aF1655495506.908935
aF1655495506.913037
aF1655495506.925405
aF1655495506.936576
aF1655495506.941734
aF1655495506.954477
aF1655495506.968057
aF1655495506.971805
aF1655495506.974949
aF1655495506.978261
aF1655495506.980876
aF1655495506.984298
aF1655495506.987981
aF1655495506.990795
aF1655495506.993263
aF1655495506.99563
aF1655495506.998104
aF1655495507.000535
aF1655495507.002946
aF1655495507.006084
aF1655495507.00905
aF1655495507.012288
aF1655495507.015781
aF1655495507.019833
aF1655495507.058657
aF1655495507.060981
aF1655495507.063388
aF1655495507.065832
aF1655495507.068469
aF1655495507.071034
aF1655495507.073508
aF1655495507.075683
aF1655495507.077993
aF1655495507.080214
aF1655495507.082912
aF1655495507.085985
aF1655495507.088485
aF1655495507.091467
aF1655495507.09506
aF1655495507.106592
aF1655495507.125379
aF1655495507.128341
aF1655495507.130985
aF1655495507.133917
aF1655495507.136532
aF1655495507.139318
aF1655495507.141836
aF1655495507.144275
aF1655495507.146627
aF1655495507.148957
aF1655495507.151639
aF1655495507.154127
aF1655495507.156272
aF1655495507.158514
aF1655495507.161632
aF1655495507.165732
aF1655495507.171048
aF1655495507.180819
aF1655495507.196508
aF1655495507.200604
aF1655495507.203429
aF1655495507.206513
aF1655495507.209604
aF1655495507.212098
aF1655495507.214555
aF1655495507.217203
aF1655495507.219889
aF1655495507.224123
aF1655495507.248275
aF1655495507.251493
aF1655495507.256399
aF1655495507.258737
aF1655495507.261385
aF1655495507.264331
aF1655495507.266828
aF1655495507.269236
aF1655495507.271718
aF1655495507.274626
aF1655495507.277251
aF1655495507.27955
aF1655495507.284005
aF1655495507.289881
aF1655495507.322929
aF1655495507.326881
aF1655495507.329622
aF1655495507.331972
aF1655495507.334179
aF1655495507.336598
aF1655495507.339114
aF1655495507.341327
aF1655495507.343663
aF1655495507.346025
aF1655495507.348276
aF1655495507.35042
aF1655495507.353646
aF1655495507.357
aF1655495507.360468
aF1655495507.364922
aF1655495507.371834
aF1655495507.403227
aF1655495507.41152
aF1655495507.414161
aF1655495507.417441
aF1655495507.420766
aF1655495507.425749
aF1655495507.449791
aF1655495507.453652
aF1655495507.456569
aF1655495507.458833
aF1655495507.461073
aF1655495507.46341
aF1655495507.465544
aF1655495507.467673
aF1655495507.470668
aF1655495507.473256
aF1655495507.475407
aF1655495507.477971
aF1655495507.480707
aF1655495507.483565
aF1655495507.487557
aF1655495507.497218
aF1655495507.515233
aF1655495507.525229
aF1655495507.527607
aF1655495507.529687
aF1655495507.531665
aF1655495507.533751
aF1655495507.535843
aF1655495507.538341
aF1655495507.540835
aF1655495507.543304
aF1655495507.55127
aF1655495507.562427
aF1655495507.569124
aF1655495507.584459
aF1655495507.591877
aF1655495507.595173
aF1655495507.59757
aF1655495507.599792
aF1655495507.602219
aF1655495507.605407
aF1655495507.608198
aF1655495507.610828
aF1655495507.613606
aF1655495507.615973
aF1655495507.618575
aF1655495507.648856
aF1655495507.651818
aF1655495507.655921
aF1655495507.661078
aF1655495507.665521
aF1655495507.667924
aF1655495507.670469
aF1655495507.67953
aF1655495507.686149
aF1655495507.688908
aF1655495507.691491
aF1655495507.694138
aF1655495507.69741
aF1655495507.70141
aF1655495507.722924
aF1655495507.737073
aF1655495507.746539
aF1655495507.749359
aF1655495507.751953
aF1655495507.781492
aF1655495507.785367
aF1655495507.792522
aF1655495507.795393
aF1655495507.797948
aF1655495507.800276
aF1655495507.802541
aF1655495507.805084
aF1655495507.807792
aF1655495507.810187
aF1655495507.812533
aF1655495507.814912
aF1655495507.817354
aF1655495507.820303
aF1655495507.82352
aF1655495507.839193
aF1655495507.867369
aF1655495507.869651
aF1655495507.872066
aF1655495507.874364
aF1655495507.876627
aF1655495507.87881
aF1655495507.881218
aF1655495507.884548
aF1655495507.89823
aF1655495507.931808
aF1655495507.934533
aF1655495507.937634
aF1655495507.940856
aF1655495507.943855
aF1655495507.94678
aF1655495507.95307
aF1655495507.959141
aF1655495507.96505
aF1655495507.98557
aF1655495507.989074
aF1655495507.991296
aF1655495507.9934
aF1655495507.995481
aF1655495507.997515
aF1655495507.99948
aF1655495508.00157
aF1655495508.003676
aF1655495508.006204
aF1655495508.009023
aF1655495508.011442
aF1655495508.013806
aF1655495508.016259
aF1655495508.026464
aF1655495508.03467
aF1655495508.061438
aF1655495508.064094
aF1655495508.066858
aF1655495508.069721
aF1655495508.073316
aF1655495508.075605
aF1655495508.077823
aF1655495508.080033
aF1655495508.085799
aF1655495508.088478
aF1655495508.090682
aF1655495508.093063
aF1655495508.095624
aF1655495508.127747
aF1655495508.131179
aF1655495508.133611
aF1655495508.135983
aF1655495508.138891
aF1655495508.1418
aF1655495508.148986
aF1655495508.151564
aF1655495508.185403
aF1655495508.20585
aF1655495508.217362
aF1655495508.2254
aF1655495508.269748
aF1655495508.272469
aF1655495508.274842
aF1655495508.277183
aF1655495508.27926
aF1655495508.281651
aF1655495508.285007
aF1655495508.289419
aF1655495508.326235
aF1655495508.335369
aF1655495508.343341
aF1655495508.350832
aF1655495508.355367
aF1655495508.360927
aF1655495508.365569
aF1655495508.369603
aF1655495508.380989
aF1655495508.383794
aF1655495508.387077
aF1655495508.390095
aF1655495508.392954
aF1655495508.395825
aF1655495508.398374
aF1655495508.400661
aF1655495508.402972
aF1655495508.413436
aF1655495508.418479
aF1655495508.461116
aF1655495508.463708
aF1655495508.46614
aF1655495508.468064
aF1655495508.470113
aF1655495508.473254
aF1655495508.475368
aF1655495508.47749
aF1655495508.479429
aF1655495508.48143
aF1655495508.488345
aF1655495508.492012
aF1655495508.494595
aF1655495508.497023
aF1655495508.4996
aF1655495508.502064
aF1655495508.505469
aF1655495508.508233
aF1655495508.510468
aF1655495508.512712
aF1655495508.515059
aF1655495508.516997
aF1655495508.519123
aF1655495508.523305
aF1655495508.525959
aF1655495508.528905
aF1655495508.531768
aF1655495508.534506
aF1655495508.537027
aF1655495508.539147
aF1655495508.541545
aF1655495508.543862
aF1655495508.546318
aF1655495508.548701
aF1655495508.551548
aF1655495508.554745
aF1655495508.55757
aF1655495508.559562
aF1655495508.562554
aF1655495508.573197
aF1655495508.575593
aF1655495508.577956
aF1655495508.580336
aF1655495508.584243
aF1655495508.588876
aF1655495508.626752
aF1655495508.641782
aF1655495508.648038
aF1655495508.654181
aF1655495508.672743
aF1655495508.676965
aF1655495508.683577
aF1655495508.687104
aF1655495508.690579
aF1655495508.693463
aF1655495508.695667
aF1655495508.697932
aF1655495508.700293
aF1655495508.702634
aF1655495508.705266
aF1655495508.707945
aF1655495508.7102
aF1655495508.712541
aF1655495508.715219
aF1655495508.717417
aF1655495508.719732
aF1655495508.72284
aF1655495508.725831
aF1655495508.728678
aF1655495508.732118
aF1655495508.73834
aF1655495508.743723
aF1655495508.74658
aF1655495508.750498
aF1655495508.75436
aF1655495508.772814
aF1655495508.775763
aF1655495508.777924
aF1655495508.779894
aF1655495508.781907
aF1655495508.784277
aF1655495508.831009
aF1655495508.838688
aF1655495508.841484
aF1655495508.844404
aF1655495508.848869
aF1655495508.856251
aF1655495508.862526
aF1655495508.872873
aF1655495508.888158
aF1655495508.891278
aF1655495508.894345
aF1655495508.896965
aF1655495508.89962
aF1655495508.903955
aF1655495508.931976
aF1655495508.948433
aF1655495508.953208
aF1655495508.978059
aF1655495508.981959
aF1655495508.988652
aF1655495508.993695
aF1655495508.996872
aF1655495509.000085
aF1655495509.003677
aF1655495509.007224
aF1655495509.010258
aF1655495509.013186
aF1655495509.016219
aF1655495509.018908
aF1655495509.021285
aF1655495509.023737
aF1655495509.025927
aF1655495509.027917
aF1655495509.030075
aF1655495509.037642
aF1655495509.066434
aF1655495509.069961
aF1655495509.074264
aF1655495509.077153
aF1655495509.080183
aF1655495509.083887
aF1655495509.087179
aF1655495509.090245
aF1655495509.093708
aF1655495509.098545
aF1655495509.108628
aF1655495509.114926
aF1655495509.141109
aF1655495509.14412
aF1655495509.147029
aF1655495509.149962
aF1655495509.152713
aF1655495509.156221
aF1655495509.159885
aF1655495509.164949
aF1655495509.171083
aF1655495509.188573
aF1655495509.192368
aF1655495509.195304
aF1655495509.197928
aF1655495509.200542
aF1655495509.202785
aF1655495509.205098
aF1655495509.207668
aF1655495509.20973
aF1655495509.211606
aF1655495509.21365
aF1655495509.215564
aF1655495509.217793
aF1655495509.219803
aF1655495509.221949
aF1655495509.224366
aF1655495509.226518
aF1655495509.228717
aF1655495509.230876
aF1655495509.233918
aF1655495509.411591
aF1655495509.41509
aF1655495509.419903
aF1655495509.425909
aF1655495509.436238
aF1655495509.44613
aF1655495509.448754
aF1655495509.451932
aF1655495509.456359
aF1655495509.458886
aF1655495509.461499
aF1655495509.463784
aF1655495509.466195
aF1655495509.469022
aF1655495509.471854
aF1655495509.47431
aF1655495509.476494
aF1655495509.479843
aF1655495509.491765
aF1655495509.49651
aF1655495509.515814
aF1655495509.518706
aF1655495509.52181
aF1655495509.524718
aF1655495509.527628
aF1655495509.53031
aF1655495509.533151
aF1655495509.53607
aF1655495509.539087
aF1655495509.541641
aF1655495509.544228
aF1655495509.547114
aF1655495509.551561
aF1655495509.557438
aF1655495509.56889
aF1655495509.605062
aF1655495509.607798
aF1655495509.613604
aF1655495509.621865
aF1655495509.649592
aF1655495509.653035
aF1655495509.655946
aF1655495509.658409
aF1655495509.660714
aF1655495509.662789
aF1655495509.664891
aF1655495509.666981
aF1655495509.66953
aF1655495509.67293
aF1655495509.675597
aF1655495509.67802
aF1655495509.685567
aF1655495509.695835
aF1655495509.704302
aF1655495509.709357
aF1655495509.732156
aF1655495509.740458
aF1655495509.742864
aF1655495509.746889
aF1655495509.7524
aF1655495509.770632
aF1655495509.774496
aF1655495509.777366
aF1655495509.793448
aF1655495509.79845
aF1655495509.801562
aF1655495509.80449
aF1655495509.807599
aF1655495509.810491
aF1655495509.814199
aF1655495509.816561
aF1655495509.827101
aF1655495509.860536
aF1655495509.863143
aF1655495509.865643
aF1655495509.868315
aF1655495509.870904
aF1655495509.873463
aF1655495509.876515
aF1655495509.878819
aF1655495509.88078
aF1655495509.893897
aF1655495509.900605
aF1655495509.918564
aF1655495509.927202
aF1655495509.940304
aF1655495509.942823
aF1655495509.945087
aF1655495509.948127
aF1655495509.960583
aF1655495509.964372
aF1655495509.993712
aF1655495509.996616
aF1655495510.008182
aF1655495510.010597
aF1655495510.013871
aF1655495510.018201
aF1655495510.024312
aF1655495510.029124
aF1655495510.031789
aF1655495510.035548
aF1655495510.039627
aF1655495510.05774
aF1655495510.06003
aF1655495510.062192
aF1655495510.064618
aF1655495510.066891
aF1655495510.069053
aF1655495510.071235
aF1655495510.073964
aF1655495510.075959
aF1655495510.077997
aF1655495510.079863
aF1655495510.081883
aF1655495510.08466
aF1655495510.088723
aF1655495510.090986
aF1655495510.09341
aF1655495510.095853
aF1655495510.098774
aF1655495510.136607
aF1655495510.147868
aF1655495510.151651
aF1655495510.157558
aF1655495510.162934
aF1655495510.18223
aF1655495510.186641
aF1655495510.193711
aF1655495510.19731
aF1655495510.207036
aF1655495510.214019
aF1655495510.221916
aF1655495510.225306
aF1655495510.231884
aF1655495510.255741
aF1655495510.263125
aF1655495510.27149
aF1655495510.276223
aF1655495510.278316
aF1655495510.28048
aF1655495510.283471
aF1655495510.287745
aF1655495510.290321
aF1655495510.29388
aF1655495510.298319
aF1655495510.325161
aF1655495510.329327
aF1655495510.337283
aF1655495510.343936
aF1655495510.348023
aF1655495510.350442
aF1655495510.352962
aF1655495510.357559
aF1655495510.362912
aF1655495510.383005
aF1655495510.390619
aF1655495510.397009
aF1655495510.399518
aF1655495510.402261
aF1655495510.404758
aF1655495510.40753
aF1655495510.410607
aF1655495510.413214
aF1655495510.415911
aF1655495510.418556
aF1655495510.425389
aF1655495510.445944
aF1655495510.453419
aF1655495510.461765
aF1655495510.463917
aF1655495510.466104
aF1655495510.468269
aF1655495510.471144
aF1655495510.473644
aF1655495510.480991
aF1655495510.489144
aF1655495510.496294
aF1655495510.501301
aF1655495510.509671
aF1655495510.531248
aF1655495510.534374
aF1655495510.537592
aF1655495510.540516
aF1655495510.542863
aF1655495510.545136
aF1655495510.547404
aF1655495510.549935
aF1655495510.552511
aF1655495510.554862
aF1655495510.557135
aF1655495510.560488
aF1655495510.564857
aF1655495510.576685
aF1655495510.581615
aF1655495510.606421
aF1655495510.61406
aF1655495510.621821
aF1655495510.633999
aF1655495510.668904
aF1655495510.671004
aF1655495510.673939
aF1655495510.676266
aF1655495510.678369
aF1655495510.68027
aF1655495510.682556
aF1655495510.688061
aF1655495510.691261
aF1655495510.695182
aF1655495510.70006
aF1655495510.720799
aF1655495510.725632
aF1655495510.728864
aF1655495510.739218
aF1655495510.74379
aF1655495510.746389
aF1655495510.750243
aF1655495510.752544
aF1655495510.755906
aF1655495510.761709
aF1655495510.767112
aF1655495510.772481
aF1655495510.777125
aF1655495510.785573
aF1655495510.789204
aF1655495510.792575
aF1655495510.795206
aF1655495510.797692
aF1655495510.799875
aF1655495510.801914
aF1655495510.803887
aF1655495510.814332
aF1655495510.816557
aF1655495510.820731
aF1655495510.82856
aF1655495510.847956
aF1655495510.851567
aF1655495510.856175
aF1655495510.859284
aF1655495510.861744
aF1655495510.86404
aF1655495510.866651
aF1655495510.869209
aF1655495510.871354
aF1655495510.877493
aF1655495510.883209
aF1655495510.891829
aF1655495510.89688
aF1655495510.903414
aF1655495510.920006
aF1655495510.92438
aF1655495510.934472
aF1655495510.944678
aF1655495510.953519
aF1655495510.961603
aF1655495510.975736
aF1655495510.981152
aF1655495510.985268
aF1655495510.990784
aF1655495510.994082
aF1655495510.999359
aF1655495511.002348
aF1655495511.004991
aF1655495511.008094
aF1655495511.010706
aF1655495511.013654
aF1655495511.016276
aF1655495511.018682
aF1655495511.021187
aF1655495511.024661
aF1655495511.032454
aF1655495511.0406
aF1655495511.044881
aF1655495511.054906
aF1655495511.059012
aF1655495511.062227
aF1655495511.065801
aF1655495511.06852
aF1655495511.070917
aF1655495511.073825
aF1655495511.075902
aF1655495511.078228
aF1655495511.080922
aF1655495511.084735
aF1655495511.087756
aF1655495511.089963
aF1655495511.093986
aF1655495511.098024
aF1655495511.102561
aF1655495511.116421
aF1655495511.119792
aF1655495511.123036
aF1655495511.126344
aF1655495511.129514
aF1655495511.132739
aF1655495511.136153
aF1655495511.139189
aF1655495511.142404
aF1655495511.145563
aF1655495511.147775
aF1655495511.150566
aF1655495511.153931
aF1655495511.157398
aF1655495511.161959
aF1655495511.168178
aF1655495511.179266
aF1655495511.184597
aF1655495511.188417
aF1655495511.192977
aF1655495511.196301
aF1655495511.19905
aF1655495511.201601
aF1655495511.204147
aF1655495511.207245
aF1655495511.209726
aF1655495511.212159
aF1655495511.214747
aF1655495511.217328
aF1655495511.221418
aF1655495511.23016
aF1655495511.250838
aF1655495511.263738
aF1655495511.267032
aF1655495511.274003
aF1655495511.276713
aF1655495511.283497
aF1655495511.299214
aF1655495511.33564
aF1655495511.342933
aF1655495511.3493
aF1655495511.351949
aF1655495511.354229
aF1655495511.375867
aF1655495511.405163
aF1655495511.407639
aF1655495511.410347
aF1655495511.417792
aF1655495511.446486
aF1655495511.458294
aF1655495511.462923
aF1655495511.465226
aF1655495511.467194
aF1655495511.469445
aF1655495511.471953
aF1655495511.474801
aF1655495511.477435
aF1655495511.479909
aF1655495511.483179
aF1655495511.487109
aF1655495511.49213
aF1655495511.500335
aF1655495511.50354
aF1655495511.507492
aF1655495511.510977
aF1655495511.51425
aF1655495511.529432
aF1655495511.532275
aF1655495511.535133
aF1655495511.538602
aF1655495511.54696
aF1655495511.550696
aF1655495511.556139
aF1655495511.559732
aF1655495511.574698
aF1655495511.577533
aF1655495511.579912
aF1655495511.58275
aF1655495511.586281
aF1655495511.588885
aF1655495511.591175
aF1655495511.597258
aF1655495511.600098
aF1655495511.613912
aF1655495511.618862
aF1655495511.624024
aF1655495511.654231
aF1655495511.660277
aF1655495511.663053
aF1655495511.665563
aF1655495511.667986
aF1655495511.670052
aF1655495511.672235
aF1655495511.674986
aF1655495511.677764
aF1655495511.680189
aF1655495511.682838
aF1655495511.685806
aF1655495511.68792
aF1655495511.690753
aF1655495511.727322
aF1655495511.73127
aF1655495511.734259
aF1655495511.736902
aF1655495511.739883
aF1655495511.749228
aF1655495511.751549
aF1655495511.754056
aF1655495511.756504
aF1655495511.758501
aF1655495511.760406
aF1655495511.762442
aF1655495511.765635
aF1655495511.770085
aF1655495511.775947
aF1655495511.797854
aF1655495511.800349
aF1655495511.802635
aF1655495511.804857
aF1655495511.807041
aF1655495511.809245
aF1655495511.811589
aF1655495511.81418
aF1655495511.816726
aF1655495511.820787
aF1655495511.823532
aF1655495511.826107
aF1655495511.83047
aF1655495511.836399
aF1655495511.843884
aF1655495511.873453
aF1655495511.876641
aF1655495511.87952
aF1655495511.882116
aF1655495511.890058
aF1655495511.892829
aF1655495511.895886
aF1655495511.898835
aF1655495511.902198
aF1655495511.908795
aF1655495511.936117
aF1655495511.940365
aF1655495511.943303
aF1655495511.946046
aF1655495511.9507
aF1655495511.953095
aF1655495511.956079
aF1655495511.958879
aF1655495511.961779
aF1655495511.96487
aF1655495511.969492
aF1655495511.989108
aF1655495511.995568
aF1655495511.998856
aF1655495512.002154
aF1655495512.005915
aF1655495512.008429
aF1655495512.01059
aF1655495512.013202
aF1655495512.015858
aF1655495512.01837
aF1655495512.020815
aF1655495512.023271
aF1655495512.026365
aF1655495512.030172
aF1655495512.036146
aF1655495512.044383
aF1655495512.057582
aF1655495512.063172
aF1655495512.066751
aF1655495512.069368
aF1655495512.072894
aF1655495512.075439
aF1655495512.078037
aF1655495512.080393
aF1655495512.086635
aF1655495512.088857
aF1655495512.091137
aF1655495512.094627
aF1655495512.09775
aF1655495512.102124
aF1655495512.120737
aF1655495512.125169
aF1655495512.132879
aF1655495512.135083
aF1655495512.137183
aF1655495512.140781
aF1655495512.143378
aF1655495512.145712
aF1655495512.147908
aF1655495512.150213
aF1655495512.152413
aF1655495512.154978
aF1655495512.157567
aF1655495512.159807
aF1655495512.162158
aF1655495512.164824
aF1655495512.16929
aF1655495512.175577
aF1655495512.182552
aF1655495512.198659
aF1655495512.213282
aF1655495512.215732
aF1655495512.226839
aF1655495512.230449
aF1655495512.26705
aF1655495512.281967
aF1655495512.284951
aF1655495512.287439
aF1655495512.290126
aF1655495512.292575
aF1655495512.295473
aF1655495512.299425
aF1655495512.330697
aF1655495512.333661
aF1655495512.33644
aF1655495512.339113
aF1655495512.35294
aF1655495512.355917
aF1655495512.359014
aF1655495512.362792
aF1655495512.367113
aF1655495512.37258
aF1655495512.379293
aF1655495512.38509
aF1655495512.41166
aF1655495512.414529
aF1655495512.417094
aF1655495512.419292
aF1655495512.42985
aF1655495512.433306
aF1655495512.442686
aF1655495512.453778
aF1655495512.468772
aF1655495512.471509
aF1655495512.475992
aF1655495512.478376
aF1655495512.481076
aF1655495512.483415
aF1655495512.485752
aF1655495512.488297
aF1655495512.491132
aF1655495512.493597
aF1655495512.496057
aF1655495512.501446
aF1655495512.542948
aF1655495512.55684
aF1655495512.559831
aF1655495512.56406
aF1655495512.568423
aF1655495512.596485
aF1655495512.599489
aF1655495512.602289
aF1655495512.611963
aF1655495512.614673
aF1655495512.617142
aF1655495512.619642
aF1655495512.630504
aF1655495512.635106
aF1655495512.672043
aF1655495512.684096
aF1655495512.696749
aF1655495512.707348
aF1655495512.714371
aF1655495512.730459
aF1655495512.741046
aF1655495512.743556
aF1655495512.752167
aF1655495512.756544
aF1655495512.774492
aF1655495512.797462
aF1655495512.809209
aF1655495512.818212
aF1655495512.820686
aF1655495512.823619
aF1655495512.829665
aF1655495512.841824
aF1655495512.859025
aF1655495512.862864
aF1655495512.866019
aF1655495512.869316
aF1655495512.872474
aF1655495512.874765
aF1655495512.87754
aF1655495512.880017
aF1655495512.882297
aF1655495512.885169
aF1655495512.888081
aF1655495512.890935
aF1655495512.893399
aF1655495512.896304
aF1655495512.906032
aF1655495512.927157
aF1655495512.930486
aF1655495512.93365
aF1655495512.937418
aF1655495512.941074
aF1655495512.943734
aF1655495512.94605
aF1655495512.948407
aF1655495512.950795
aF1655495512.95344
aF1655495512.956531
aF1655495512.959297
aF1655495512.961673
aF1655495512.963879
aF1655495512.96609
aF1655495512.969029
aF1655495512.973837
aF1655495512.978228
aF1655495512.985439
aF1655495512.990087
aF1655495512.999747
aF1655495513.00361
aF1655495513.00717
aF1655495513.012257
aF1655495513.014824
aF1655495513.017454
aF1655495513.020263
aF1655495513.022923
aF1655495513.025498
aF1655495513.028023
aF1655495513.030524
aF1655495513.033258
aF1655495513.035525
aF1655495513.044208
aF1655495513.071353
aF1655495513.085789
aF1655495513.090692
aF1655495513.093558
aF1655495513.096885
aF1655495513.109079
aF1655495513.134667
aF1655495513.141457
aF1655495513.150496
aF1655495513.170592
aF1655495513.209851
aF1655495513.217135
aF1655495513.225525
aF1655495513.232456
aF1655495513.263737
aF1655495513.266794
aF1655495513.274135
aF1655495513.276593
aF1655495513.278593
aF1655495513.280837
aF1655495513.286797
aF1655495513.295493
aF1655495513.307571
aF1655495513.329503
aF1655495513.332191
aF1655495513.335193
aF1655495513.337895
aF1655495513.340568
aF1655495513.343687
aF1655495513.346759
aF1655495513.350713
aF1655495513.353575
aF1655495513.356834
aF1655495513.359585
aF1655495513.363157
aF1655495513.367239
aF1655495513.37415
aF1655495513.379751
aF1655495513.384807
aF1655495513.39646
aF1655495513.399226
aF1655495513.401909
aF1655495513.404846
aF1655495513.407533
aF1655495513.410328
aF1655495513.413042
aF1655495513.415458
aF1655495513.417971
aF1655495513.450466
aF1655495513.4563
aF1655495513.459949
aF1655495513.477654
aF1655495513.479928
aF1655495513.498214
aF1655495513.508652
aF1655495513.514514
aF1655495513.529425
aF1655495513.533192
aF1655495513.536218
aF1655495513.543891
aF1655495513.550954
aF1655495513.553813
aF1655495513.597476
aF1655495513.607572
aF1655495513.61582
aF1655495513.654708
aF1655495513.659561
aF1655495513.662858
aF1655495513.669171
aF1655495513.67218
aF1655495513.67468
aF1655495513.67677
aF1655495513.679102
aF1655495513.681594
aF1655495513.684604
aF1655495513.688567
aF1655495513.691976
aF1655495513.728894
aF1655495513.743722
aF1655495513.752434
aF1655495513.75695
aF1655495513.761884
aF1655495513.766134
aF1655495513.769168
aF1655495513.772408
aF1655495513.777007
aF1655495513.796294
aF1655495513.798586
aF1655495513.800861
aF1655495513.802936
aF1655495513.805141
aF1655495513.807764
aF1655495513.810356
aF1655495513.813274
aF1655495513.817
aF1655495513.82052
aF1655495513.825542
aF1655495513.832242
aF1655495513.838292
aF1655495513.842083
aF1655495513.859998
aF1655495513.862693
aF1655495513.865135
aF1655495513.867413
aF1655495513.869917
aF1655495513.875104
aF1655495513.877736
aF1655495513.880151
aF1655495513.887642
aF1655495513.893525
aF1655495513.925554
aF1655495513.927721
aF1655495513.929796
aF1655495513.932014
aF1655495513.934855
aF1655495513.938122
aF1655495513.940948
aF1655495513.943315
aF1655495513.945785
aF1655495513.94839
aF1655495513.951093
aF1655495513.953521
aF1655495513.956172
aF1655495513.960591
aF1655495513.967854
aF1655495513.975711
aF1655495513.981644
aF1655495514.006262
aF1655495514.008847
aF1655495514.011421
aF1655495514.013866
aF1655495514.016272
aF1655495514.018865
aF1655495514.021256
aF1655495514.023533
aF1655495514.02662
aF1655495514.035881
aF1655495514.043633
aF1655495514.049995
aF1655495514.054621
aF1655495514.067479
aF1655495514.070948
aF1655495514.074007
aF1655495514.076866
aF1655495514.079759
aF1655495514.083808
aF1655495514.088104
aF1655495514.100714
aF1655495514.152959
aF1655495514.162595
aF1655495514.164858
aF1655495514.168381
aF1655495514.173307
aF1655495514.178988
aF1655495514.198554
aF1655495514.213753
aF1655495514.22553
aF1655495514.228899
aF1655495514.232019
aF1655495514.265814
aF1655495514.276362
aF1655495514.279213
aF1655495514.415862
aF1655495514.418476
aF1655495514.420671
aF1655495514.422815
aF1655495514.425215
aF1655495514.427648
aF1655495514.431793
aF1655495514.436422
aF1655495514.471689
aF1655495514.482302
aF1655495514.485228
aF1655495514.524556
aF1655495514.528322
aF1655495514.531971
aF1655495514.551454
a(lp1
F59.34737777709961
aF59.34737777709961
aF59.34737777709961
aF59.34737777709961
aF59.34737777709961
aF59.34737777709961
aF59.34737777709961
aF59.34737777709961
aF59.34737777709961
aF59.34737777709961
aF59.3521728515625
aF59.3521728515625
aF59.3521728515625
aF59.3521728515625
aF59.3521728515625
aF59.3521728515625
aF59.3521728515625
aF59.3521728515625
aF59.33489227294922
aF59.33489227294922
aF59.33489227294922
aF59.33489227294922
aF59.33489227294922
aF59.33489227294922
aF59.33489227294922
aF59.33489227294922
aF59.33489227294922
aF59.33489227294922
aF59.33489227294922
aF59.33489227294922
aF59.33489227294922
aF59.33489227294922
aF59.33489227294922
aF59.33489227294922
aF59.33207321166992
aF59.33207321166992
aF59.33207321166992
aF59.33207321166992
aF59.33207321166992
aF59.33207321166992
aF59.33207321166992
aF59.33207321166992
aF59.33207321166992
aF59.33207321166992
aF59.34844970703125
aF59.34844970703125
aF59.34844970703125
aF59.34844970703125
aF59.34844970703125
aF59.34844970703125
aF59.34844970703125
aF59.34844970703125
aF59.34844970703125
aF59.33552932739258
aF59.33552932739258
aF59.33552932739258
aF59.33552932739258
aF59.33552932739258
aF59.33552932739258
aF59.33552932739258
aF59.33552932739258
aF59.334510803222656
aF59.334510803222656
aF59.334510803222656
aF59.346073150634766
aF59.346073150634766
aF59.346073150634766
aF59.346073150634766
aF59.346073150634766
aF59.346073150634766
aF59.346073150634766
aF59.346073150634766
aF59.346073150634766
aF59.346073150634766
aF59.346073150634766
aF59.346073150634766
aF59.346073150634766
aF59.346073150634766
aF59.36003494262695
aF59.36003494262695
aF59.36003494262695
aF59.36003494262695
aF59.36003494262695
aF59.368839263916016
aF59.368839263916016
aF59.368839263916016
aF59.368839263916016
aF59.368839263916016
aF59.368839263916016
aF59.368839263916016
aF59.368839263916016
aF59.368839263916016
aF59.368839263916016
aF59.368839263916016
aF59.368839263916016
aF59.368839263916016
aF59.354026794433594
aF59.354026794433594
aF59.36582946777344
aF59.34019088745117
aF59.34019088745117
aF59.34019088745117
aF59.3598518371582
aF59.3598518371582
aF59.3598518371582
aF59.3598518371582
aF59.3598518371582
aF59.3598518371582
aF59.3598518371582
aF59.3598518371582
aF59.3598518371582
aF59.3598518371582
aF59.37430953979492
aF59.37430953979492
aF59.37430953979492
aF59.37430953979492
aF59.37430953979492
aF59.37430953979492
aF59.37430953979492
aF59.37430953979492
aF59.37430953979492
aF59.37430953979492
aF59.37430953979492
aF59.37430953979492
aF59.37430953979492
aF59.37430953979492
aF59.36162567138672
aF59.36162567138672
aF59.36162567138672
aF59.36162567138672
aF59.36162567138672
aF59.36162567138672
aF59.36162567138672
aF59.36162567138672
aF59.36162567138672
aF59.36162567138672
aF59.36162567138672
aF59.37081527709961
aF59.37081527709961
aF59.37081527709961
aF59.37081527709961
aF59.37081527709961
aF59.354713439941406
aF59.354713439941406
aF59.354713439941406
aF59.354713439941406
aF59.354713439941406
aF59.35020446777344
aF59.35020446777344
aF59.35020446777344
aF59.35020446777344
aF59.35020446777344
aF59.35020446777344
aF59.35020446777344
aF59.35020446777344
aF59.35020446777344
aF59.35020446777344
aF59.35020446777344
aF59.35020446777344
aF59.35020446777344
aF59.35020446777344
aF59.35020446777344
aF59.35020446777344
aF59.35020446777344
aF59.35020446777344
aF59.35020446777344
aF59.35020446777344
aF59.35020446777344
aF59.35020446777344
aF59.35020446777344
aF59.361873626708984
aF59.361873626708984
aF59.361873626708984
aF59.361873626708984
aF59.361873626708984
aF59.361873626708984
aF59.361873626708984
aF59.361873626708984
aF59.361873626708984
aF59.361873626708984
aF59.37672424316406
aF59.37672424316406
aF59.37672424316406
aF59.37672424316406
aF59.37672424316406
aF59.37672424316406
aF59.37672424316406
aF59.37672424316406
aF59.37672424316406
aF59.37672424316406
aF59.37672424316406
aF59.37672424316406
aF59.37672424316406
aF59.37672424316406
aF59.402374267578125
aF59.402374267578125
aF59.402374267578125
aF59.39153289794922
aF59.39153289794922
aF59.39153289794922
aF59.39153289794922
aF59.39153289794922
aF59.39153289794922
aF59.39153289794922
aF59.39153289794922
aF59.39153289794922
aF59.39153289794922
aF59.39153289794922
aF59.39153289794922
aF59.39153289794922
aF59.39153289794922
aF59.39153289794922
aF59.387542724609375
aF59.387542724609375
aF59.387542724609375
aF59.387542724609375
aF59.387542724609375
aF59.387542724609375
aF59.387542724609375
aF59.387542724609375
aF59.387542724609375
aF59.36626052856445
aF59.36626052856445
aF59.36626052856445
aF59.36626052856445
aF59.36626052856445
aF59.36626052856445
aF59.36626052856445
aF59.36626052856445
aF59.36626052856445
aF59.36626052856445
aF59.36626052856445
aF59.36626052856445
aF59.36626052856445
aF59.376529693603516
aF59.376529693603516
aF59.376529693603516
aF59.376529693603516
aF59.376529693603516
aF59.376529693603516
aF59.376529693603516
aF59.376529693603516
aF59.376529693603516
aF59.38264846801758
aF59.38264846801758
aF59.38264846801758
aF59.38264846801758
aF59.38264846801758
aF59.38264846801758
aF59.38264846801758
aF59.38264846801758
aF59.35116195678711
aF59.35116195678711
aF59.35116195678711
aF59.35116195678711
aF59.35116195678711
aF59.35116195678711
aF59.35116195678711
aF59.35116195678711
aF59.3615608215332
aF59.3615608215332
aF59.3615608215332
aF59.3615608215332
aF59.3615608215332
aF59.3615608215332
aF59.38121032714844
aF59.38121032714844
aF59.38121032714844
aF59.38121032714844
aF59.38121032714844
aF59.38121032714844
aF59.40556716918945
aF59.40556716918945
aF59.40556716918945
aF59.40556716918945
aF59.40556716918945
aF59.40556716918945
aF59.453338623046875
aF59.453338623046875
aF59.453338623046875
aF59.453338623046875
aF59.453338623046875
aF59.39200210571289
aF59.39200210571289
aF59.39200210571289
aF59.39200210571289
aF59.39200210571289
aF59.39200210571289
aF59.39200210571289
aF59.39200210571289
aF59.39200210571289
aF59.39200210571289
aF59.39200210571289
aF59.39200210571289
aF59.389564514160156
aF59.389564514160156
aF59.39170837402344
aF59.39170837402344
aF59.37688446044922
aF59.37688446044922
aF59.37688446044922
aF59.386474609375
aF59.386474609375
aF59.386112213134766
aF59.386112213134766
aF59.386112213134766
aF59.386112213134766
aF59.386112213134766
aF59.386112213134766
aF59.386112213134766
aF59.386112213134766
aF59.386112213134766
aF59.386112213134766
aF59.386112213134766
aF59.38168716430664
aF59.38168716430664
aF59.38168716430664
aF59.38168716430664
aF59.38168716430664
aF59.38168716430664
aF59.38168716430664
aF59.38168716430664
aF59.38168716430664
aF59.38168716430664
aF59.3625373840332
aF59.3625373840332
aF59.3625373840332
aF59.3625373840332
aF59.3625373840332
aF59.3625373840332
aF59.35432434082031
aF59.35432434082031
aF59.32441711425781
aF59.32441711425781
aF59.32441711425781
aF59.32441711425781
aF59.32441711425781
aF59.32441711425781
aF59.32441711425781
aF59.32441711425781
aF59.3250617980957
aF59.3250617980957
aF59.3250617980957
aF59.3250617980957
aF59.3250617980957
aF59.3250617980957
aF59.3250617980957
aF59.3250617980957
aF59.3250617980957
aF59.3250617980957
aF59.3250617980957
aF59.3250617980957
aF59.3250617980957
aF59.3250617980957
aF59.31904220581055
aF59.31904220581055
aF59.31904220581055
aF59.31904220581055
aF59.31904220581055
aF59.3739013671875
aF59.3739013671875
aF59.3739013671875
aF59.3739013671875
aF59.3739013671875
aF59.3739013671875
aF59.3739013671875
aF59.3739013671875
aF59.3739013671875
aF59.3739013671875
aF59.3739013671875
aF59.3739013671875
aF59.31975555419922
aF59.31975555419922
aF59.31975555419922
aF59.32127380371094
aF59.32127380371094
aF59.32127380371094
aF59.32127380371094
aF59.32127380371094
aF59.32127380371094
aF59.32127380371094
aF59.32127380371094
aF59.32127380371094
aF59.34038543701172
aF59.34038543701172
aF59.34038543701172
aF59.34038543701172
aF59.34038543701172
aF59.34038543701172
aF59.34038543701172
aF59.34038543701172
aF59.34038543701172
aF59.34038543701172
aF59.34038543701172
aF59.33717727661133
aF59.33717727661133
aF59.33717727661133
aF59.33717727661133
aF59.33717727661133
aF59.33717727661133
aF59.33717727661133
aF59.355865478515625
aF59.355865478515625
aF59.355865478515625
aF59.355865478515625
aF59.355865478515625
aF59.355865478515625
aF59.355865478515625
aF59.355865478515625
aF59.355865478515625
aF59.355865478515625
aF59.35273742675781
aF59.35273742675781
aF59.35273742675781
aF59.32208251953125
aF59.32208251953125
aF59.32208251953125
aF59.32208251953125
aF59.32208251953125
aF59.32208251953125
aF59.32864761352539
aF59.32864761352539
aF59.32864761352539
aF59.32864761352539
aF59.32864761352539
aF59.32864761352539
aF59.32864761352539
aF59.32864761352539
aF59.32864761352539
aF59.32864761352539
aF59.32864761352539
aF59.32864761352539
aF59.32864761352539
aF59.32864761352539
aF59.32864761352539
aF59.32864761352539
aF59.32864761352539
aF59.33063888549805
aF59.33063888549805
aF59.33063888549805
aF59.33063888549805
aF59.34849166870117
aF59.34849166870117
aF59.34849166870117
aF59.34849166870117
aF59.34849166870117
aF59.34849166870117
aF59.34849166870117
aF59.34849166870117
aF59.34849166870117
aF59.34849166870117
aF59.36362075805664
aF59.36362075805664
aF59.36362075805664
aF59.36362075805664
aF59.36362075805664
aF59.36362075805664
aF59.36362075805664
aF59.36362075805664
aF59.35657501220703
aF59.35657501220703
aF59.33653259277344
aF59.33653259277344
aF59.33653259277344
aF59.33653259277344
aF59.33653259277344
aF59.33653259277344
aF59.33653259277344
aF59.33653259277344
aF59.33653259277344
aF59.33653259277344
aF59.33653259277344
aF59.33653259277344
aF59.34787368774414
aF59.34787368774414
aF59.34787368774414
aF59.34787368774414
aF59.34787368774414
aF59.34787368774414
aF59.34787368774414
aF59.34787368774414
aF59.34787368774414
aF59.34787368774414
aF59.34787368774414
aF59.34787368774414
aF59.33745574951172
aF59.33745574951172
aF59.33745574951172
aF59.32033920288086
aF59.32033920288086
aF59.32033920288086
aF59.32033920288086
aF59.32033920288086
aF59.32033920288086
aF59.32033920288086
aF59.32033920288086
aF59.31174850463867
aF59.31174850463867
aF59.31174850463867
aF59.31174850463867
aF59.31174850463867
aF59.31174850463867
aF59.31174850463867
aF59.31174850463867
aF59.31174850463867
aF59.376338958740234
aF59.376338958740234
aF59.376338958740234
aF59.376338958740234
aF59.376338958740234
aF59.376338958740234
aF59.376338958740234
aF59.376338958740234
aF59.376338958740234
aF59.376338958740234
aF59.376338958740234
aF59.376338958740234
aF59.348716735839844
aF59.348716735839844
aF59.358211517333984
aF59.358211517333984
aF59.358211517333984
aF59.358211517333984
aF59.358211517333984
aF59.358211517333984
aF59.358211517333984
aF59.358211517333984
aF59.358211517333984
aF59.358211517333984
aF59.358211517333984
aF59.358211517333984
aF59.32403564453125
aF59.32403564453125
aF59.32403564453125
aF59.32403564453125
aF59.32403564453125
aF59.32403564453125
aF59.32403564453125
aF59.32403564453125
aF59.363101959228516
aF59.363101959228516
aF59.363101959228516
aF59.363101959228516
aF59.363101959228516
aF59.363101959228516
aF59.363101959228516
aF59.363101959228516
aF59.363101959228516
aF59.40180587768555
aF59.40180587768555
aF59.40180587768555
aF59.40180587768555
aF59.40180587768555
aF59.40180587768555
aF59.40180587768555
aF59.40180587768555
aF59.40180587768555
aF59.40180587768555
aF59.40180587768555
aF59.40180587768555
aF59.40180587768555
aF59.419490814208984
aF59.419490814208984
aF59.419490814208984
aF59.419490814208984
aF59.419490814208984
aF59.419490814208984
aF59.419490814208984
aF59.419490814208984
aF59.419490814208984
aF59.419490814208984
aF59.419490814208984
aF59.419490814208984
aF59.419490814208984
aF59.419490814208984
aF59.419490814208984
aF59.419490814208984
aF59.419490814208984
aF59.419490814208984
aF59.369544982910156
aF59.369544982910156
aF59.369544982910156
aF59.369544982910156
aF59.369544982910156
aF59.369544982910156
aF59.369544982910156
aF59.369544982910156
aF59.37869644165039
aF59.37869644165039
aF59.37869644165039
aF59.37869644165039
aF59.37869644165039
aF59.37869644165039
aF59.37869644165039
aF59.411006927490234
aF59.411006927490234
aF59.411006927490234
aF59.411006927490234
aF59.411006927490234
aF59.411006927490234
aF59.411006927490234
aF59.411006927490234
aF59.411006927490234
aF59.411006927490234
aF59.37556076049805
aF59.37556076049805
aF59.37556076049805
aF59.37556076049805
aF59.37556076049805
aF59.37556076049805
aF59.37556076049805
aF59.35102844238281
aF59.35102844238281
aF59.35102844238281
aF59.35102844238281
aF59.35102844238281
aF59.35102844238281
aF59.35102844238281
aF59.35102844238281
aF59.35102844238281
aF59.35102844238281
aF59.35102844238281
aF59.35102844238281
aF59.35102844238281
aF59.35102844238281
aF59.37416458129883
aF59.37416458129883
aF59.37416458129883
aF59.36172103881836
aF59.36172103881836
aF59.36172103881836
aF59.367496490478516
aF59.367496490478516
aF59.36170959472656
aF59.36170959472656
aF59.36170959472656
aF59.36170959472656
aF59.36170959472656
aF59.36170959472656
aF59.36170959472656
aF59.36170959472656
aF59.36170959472656
aF59.36170959472656
aF59.36170959472656
aF59.36170959472656
aF59.36170959472656
aF59.36170959472656
aF59.36170959472656
aF59.328224182128906
aF59.328224182128906
aF59.29056167602539
aF59.29056167602539
aF59.29056167602539
aF59.29056167602539
aF59.29056167602539
aF59.29056167602539
aF59.29105758666992
aF59.29105758666992
aF59.29105758666992
aF59.29105758666992
aF59.29105758666992
aF59.29105758666992
aF59.29105758666992
aF59.29105758666992
aF59.29105758666992
aF59.29105758666992
aF59.29105758666992
aF59.31420135498047
aF59.31420135498047
aF59.31420135498047
aF59.31420135498047
aF59.31420135498047
aF59.31420135498047
aF59.31420135498047
aF59.31420135498047
aF59.31420135498047
aF59.31420135498047
aF59.31420135498047
aF59.31420135498047
aF59.32050704956055
aF59.32050704956055
aF59.32050704956055
aF59.32050704956055
aF59.32050704956055
aF59.32050704956055
aF59.32050704956055
aF59.32050704956055
aF59.32050704956055
aF59.32050704956055
aF59.32050704956055
aF59.32050704956055
aF59.32050704956055
aF59.32247543334961
aF59.32247543334961
aF59.32247543334961
aF59.32247543334961
aF59.32247543334961
aF59.28325653076172
aF59.28325653076172
aF59.28325653076172
aF59.28325653076172
aF59.28325653076172
aF59.28325653076172
aF59.28325653076172
aF59.28325653076172
aF59.28325653076172
aF59.28325653076172
aF59.29417419433594
aF59.29417419433594
aF59.29417419433594
aF59.29417419433594
aF59.29417419433594
aF59.29417419433594
aF59.29417419433594
aF59.2944450378418
aF59.2944450378418
aF59.2944450378418
aF59.2944450378418
aF59.2944450378418
aF59.2944450378418
aF59.2944450378418
aF59.284088134765625
aF59.284088134765625
aF59.284088134765625
aF59.284088134765625
aF59.284088134765625
aF59.284088134765625
aF59.284088134765625
aF59.284088134765625
aF59.284088134765625
aF59.284088134765625
aF59.284088134765625
aF59.288516998291016
aF59.288516998291016
aF59.288516998291016
aF59.288516998291016
aF59.288516998291016
aF59.288516998291016
aF59.288516998291016
aF59.288516998291016
aF59.288516998291016
aF59.288516998291016
aF59.288516998291016
aF59.288516998291016
aF59.288516998291016
aF59.326072692871094
aF59.326072692871094
aF59.326072692871094
aF59.326072692871094
aF59.326072692871094
aF59.34043884277344
aF59.34043884277344
aF59.34043884277344
aF59.34043884277344
aF59.34043884277344
aF59.34043884277344
aF59.344444274902344
aF59.30891418457031
aF59.30891418457031
aF59.30891418457031
aF59.30891418457031
aF59.30891418457031
aF59.30891418457031
aF59.30891418457031
aF59.30891418457031
aF59.30891418457031
aF59.30891418457031
aF59.313228607177734
aF59.313228607177734
aF59.313228607177734
aF59.313228607177734
aF59.313228607177734
aF59.313228607177734
aF59.313228607177734
aF59.313228607177734
aF59.313228607177734
aF59.311737060546875
aF59.311737060546875
aF59.311737060546875
aF59.311737060546875
aF59.311737060546875
aF59.311737060546875
aF59.311737060546875
aF59.311737060546875
aF59.311737060546875
aF59.311737060546875
aF59.311737060546875
aF59.311737060546875
aF59.311737060546875
aF59.311737060546875
aF59.311737060546875
aF59.319698333740234
aF59.319698333740234
aF59.319698333740234
aF59.319698333740234
aF59.319698333740234
aF59.319698333740234
aF59.29302215576172
aF59.29302215576172
aF59.29302215576172
aF59.29302215576172
aF59.29302215576172
aF59.29302215576172
aF59.29302215576172
aF59.29302215576172
aF59.29302215576172
aF59.33029556274414
aF59.33029556274414
aF59.33029556274414
aF59.33029556274414
aF59.33029556274414
aF59.33029556274414
aF59.33029556274414
aF59.33029556274414
aF59.33029556274414
aF59.33029556274414
aF59.265899658203125
aF59.265899658203125
aF59.265899658203125
aF59.265899658203125
aF59.265899658203125
aF59.300479888916016
aF59.300479888916016
aF59.300479888916016
aF59.300479888916016
aF59.300479888916016
aF59.300479888916016
aF59.300479888916016
aF59.300437927246094
aF59.300437927246094
aF59.29501724243164
aF59.29501724243164
aF59.29501724243164
aF59.30823516845703
aF59.30823516845703
aF59.30823516845703
aF59.30823516845703
aF59.30823516845703
aF59.30823516845703
aF59.30823516845703
aF59.30823516845703
aF59.318206787109375
aF59.318206787109375
aF59.318206787109375
aF59.318206787109375
aF59.318206787109375
aF59.318206787109375
aF59.3116569519043
aF59.3116569519043
aF59.3116569519043
aF59.3116569519043
aF59.3116569519043
aF59.3116569519043
aF59.3116569519043
aF59.3116569519043
aF59.3116569519043
aF59.3116569519043
aF59.3116569519043
aF59.317176818847656
aF59.317176818847656
aF59.317176818847656
aF59.317176818847656
aF59.317176818847656
aF59.317176818847656
aF59.317176818847656
aF59.317176818847656
aF59.317176818847656
aF59.317176818847656
aF59.317176818847656
aF59.317176818847656
aF59.286624908447266
aF59.286624908447266
aF59.286624908447266
aF59.286624908447266
aF59.286624908447266
aF59.286624908447266
aF59.293617248535156
aF59.293617248535156
aF59.293617248535156
aF59.293617248535156
aF59.293617248535156
aF59.293617248535156
aF59.293617248535156
aF59.293617248535156
aF59.293617248535156
aF59.293617248535156
aF59.293617248535156
aF59.293617248535156
aF59.29056930541992
aF59.29056930541992
aF59.29056930541992
aF59.29056930541992
aF59.29056930541992
aF59.29056930541992
aF59.29056930541992
aF59.29056930541992
aF59.29056930541992
aF59.270263671875
aF59.270263671875
aF59.270263671875
aF59.270263671875
aF59.270263671875
aF59.270263671875
aF59.270263671875
aF59.270263671875
aF59.270263671875
aF59.270263671875
aF59.270263671875
aF59.258121490478516
aF59.258121490478516
aF59.258121490478516
aF59.258121490478516
aF59.258121490478516
aF59.258121490478516
aF59.258121490478516
aF59.28736114501953
aF59.28736114501953
aF59.28736114501953
aF59.28736114501953
aF59.28736114501953
aF59.28736114501953
aF59.28736114501953
aF59.279083251953125
aF59.279083251953125
aF59.279083251953125
aF59.279083251953125
aF59.279083251953125
aF59.279083251953125
aF59.279083251953125
aF59.279083251953125
aF59.279083251953125
aF59.279083251953125
aF59.26313018798828
aF59.26313018798828
aF59.26313018798828
aF59.26313018798828
aF59.26313018798828
aF59.26313018798828
aF59.26313018798828
aF59.26313018798828
aF59.26313018798828
aF59.26313018798828
aF59.26313018798828
aF59.26313018798828
aF59.3018798828125
aF59.3018798828125
aF59.3018798828125
aF59.3018798828125
aF59.3018798828125
aF59.3018798828125
aF59.3018798828125
aF59.3018798828125
aF59.3018798828125
aF59.3018798828125
aF59.3018798828125
aF59.3018798828125
aF59.3218994140625
aF59.3218994140625
aF59.3218994140625
aF59.3218994140625
aF59.3218994140625
aF59.3218994140625
aF59.3218994140625
aF59.3218994140625
aF59.3218994140625
aF59.3218994140625
aF59.3218994140625
aF59.3218994140625
aF59.3218994140625
aF59.3218994140625
aF59.3218994140625
aF59.3218994140625
aF59.3218994140625
aF59.3218994140625
aF59.3218994140625
aF59.307682037353516
aF59.307682037353516
aF59.307682037353516
aF59.307682037353516
aF59.307682037353516
aF59.307682037353516
aF59.307682037353516
aF59.307682037353516
aF59.31094741821289
aF59.31094741821289
aF59.31094741821289
aF59.31094741821289
aF59.3078498840332
aF59.3078498840332
aF59.31647872924805
aF59.31647872924805
aF59.31647872924805
aF59.31864547729492
aF59.31864547729492
aF59.31864547729492
aF59.31864547729492
aF59.31864547729492
aF59.31864547729492
aF59.31864547729492
aF59.31864547729492
aF59.31864547729492
aF59.31864547729492
aF59.31864547729492
aF59.31864547729492
aF59.31864547729492
aF59.31864547729492
aF59.35258483886719
aF59.35258483886719
aF59.35258483886719
aF59.35258483886719
aF59.337791442871094
aF59.31970977783203
aF59.31970977783203
aF59.31970977783203
aF59.31970977783203
aF59.31970977783203
aF59.31734848022461
aF59.31734848022461
aF59.31734848022461
aF59.31734848022461
aF59.31734848022461
aF59.31734848022461
aF59.31734848022461
aF59.31734848022461
aF59.31734848022461
aF59.31734848022461
aF59.31734848022461
aF59.31734848022461
aF59.2885627746582
aF59.2885627746582
aF59.2885627746582
aF59.2885627746582
aF59.2885627746582
aF59.2885627746582
aF59.2885627746582
aF59.31128692626953
aF59.31128692626953
aF59.31128692626953
aF59.31128692626953
aF59.31128692626953
aF59.31128692626953
aF59.31128692626953
aF59.299949645996094
aF59.299949645996094
aF59.299949645996094
aF59.299949645996094
aF59.299949645996094
aF59.299949645996094
aF59.299949645996094
aF59.299949645996094
aF59.299949645996094
aF59.299949645996094
aF59.299949645996094
aF59.299949645996094
aF59.299949645996094
aF59.299949645996094
aF59.299949645996094
aF59.31355667114258
aF59.31355667114258
aF59.31355667114258
aF59.31355667114258
aF59.31355667114258
aF59.31355667114258
aF59.31355667114258
aF59.31355667114258
aF59.31355667114258
aF59.31355667114258
aF59.31355667114258
aF59.327266693115234
aF59.327266693115234
aF59.327266693115234
aF59.327266693115234
aF59.327266693115234
aF59.327266693115234
aF59.327266693115234
aF59.327266693115234
aF59.33962631225586
aF59.33962631225586
aF59.33962631225586
aF59.33962631225586
aF59.33962631225586
aF59.33962631225586
aF59.33962631225586
aF59.344322204589844
aF59.344322204589844
aF59.344322204589844
aF59.344322204589844
aF59.344322204589844
aF59.344322204589844
aF59.344322204589844
aF59.344322204589844
aF58.19035339355469
aF58.19035339355469
aF58.19035339355469
aF58.19035339355469
aF58.19035339355469
aF50.6043815612793
aF50.6043815612793
aF50.6043815612793
aF50.6043815612793
aF50.6043815612793
aF50.6043815612793
aF367.7303154606384
aF45.869232940673825
aF45.869232940673825
aF45.869232940673825
aF45.869232940673825
aF354.3255222998363
aF41.537235260009766
aF41.537235260009766
aF41.537235260009766
aF41.537235260009766
aF41.537235260009766
aF41.537235260009766
aF94.46360656442202
aF57.95447540283203
aF57.95447540283203
aF57.95447540283203
aF57.95447540283203
aF57.95447540283203
aF57.95447540283203
aF57.95447540283203
aF57.95447540283203
aF57.95447540283203
aF57.95447540283203
aF57.95447540283203
aF57.95447540283203
aF57.95447540283203
aF57.95447540283203
aF57.95447540283203
aF57.95447540283203
aF57.95447540283203
aF57.95447540283203
aF57.95447540283203
aF57.95447540283203
aF57.95447540283203
aF57.95447540283203
aF57.95447540283203
aF57.95447540283203
aF57.95447540283203
aF57.95447540283203
aF57.95447540283203
aF57.95447540283203
aF57.95447540283203
aF57.95447540283203
aF57.95447540283203
aF57.95447540283203
aF57.95447540283203
aF57.95447540283203
aF57.95447540283203
aF57.95447540283203
aF57.95447540283203
aF57.95447540283203
aF57.95447540283203
aF57.95447540283203
aF57.95447540283203
aF57.95447540283203
aF57.95447540283203
aF57.95447540283203
aF57.95447540283203
aF57.95447540283203
aF57.95447540283203
aF57.95447540283203
aF57.95447540283203
aF57.95447540283203
aF57.95447540283203
aF57.95447540283203
aF57.95447540283203
aF57.95447540283203
aF57.95447540283203
aF57.95447540283203
aF57.95447540283203
aF57.95447540283203
aF57.95447540283203
aF57.95447540283203
aF57.95447540283203
aF57.95447540283203
aF57.95447540283203
aF57.95447540283203
aF57.95447540283203
aF57.95447540283203
aF57.95447540283203
aF57.95447540283203
aF57.95447540283203
aF57.95447540283203
aF57.95447540283203
aF57.95447540283203
aF57.95447540283203
aF57.95447540283203
aF57.95447540283203
aF57.95447540283203
aF57.95447540283203
aF57.95447540283203
aF57.95447540283203
aF57.95447540283203
aF57.95447540283203
aF57.95447540283203
aF57.95447540283203
aF57.95447540283203
aF57.95447540283203
aF57.95447540283203
aF57.95447540283203
aF57.95447540283203
aF57.95447540283203
aF57.95447540283203
aF57.95447540283203
aF57.95447540283203
aF57.95447540283203
aF57.95447540283203
aF57.95447540283203
aF57.95447540283203
aF57.95447540283203
aF57.95447540283203
aF57.95447540283203
aF57.95447540283203
aF57.95447540283203
aF57.95447540283203
aF57.95447540283203
aF57.95447540283203
aF57.95447540283203
aF57.95447540283203
aF57.95447540283203
aF57.95447540283203
aF57.95447540283203
aF57.95447540283203
aF57.95447540283203
aF57.95447540283203
aF57.95447540283203
aF57.95447540283203
aF57.95447540283203
aF57.95447540283203
aF57.95447540283203
aF57.95447540283203
aF57.95447540283203
aF57.95447540283203
aF57.95447540283203
aF57.95447540283203
aF57.95447540283203
aF57.95447540283203
aF57.95447540283203
aF57.95447540283203
aF57.95447540283203
aF57.95447540283203
aF57.95447540283203
aF57.95447540283203
aF57.95447540283203
aF57.95447540283203
aF57.95447540283203
aF57.95447540283203
aF57.95447540283203
aF57.95447540283203
aF57.95447540283203
aF57.95447540283203
aF57.95447540283203
aF57.95447540283203
aF57.95447540283203
aF57.95447540283203
aF57.95447540283203
aF57.95447540283203
aF57.95447540283203
aF57.95447540283203
aF57.95447540283203
aF57.95447540283203
aF57.95447540283203
aF57.95447540283203
aF57.95447540283203
aF57.95447540283203
aF57.95447540283203
aF57.95447540283203
aF57.95447540283203
aF57.95447540283203
aF57.95447540283203
aF57.95447540283203
aF57.95447540283203
aF57.95447540283203
aF57.95447540283203
aF57.95447540283203
aF57.95447540283203
aF57.95447540283203
aF57.95447540283203
aF57.95447540283203
aF57.95447540283203
aF57.95447540283203
aF57.95447540283203
aF57.95447540283203
aF57.95447540283203
aF57.95447540283203
aF57.95447540283203
aF57.95447540283203
aF57.95447540283203
aF57.95447540283203
aF57.95447540283203
aF57.95447540283203
aF57.95447540283203
aF57.95447540283203
aF57.95447540283203
aF57.95447540283203
aF57.95447540283203
aF57.95447540283203
aF57.95447540283203
aF57.95447540283203
aF57.95447540283203
aF57.95447540283203
aF57.95447540283203
aF57.95447540283203
aF57.95447540283203
aF57.95447540283203
aF57.95447540283203
aF57.95447540283203
aF57.95447540283203
aF57.95447540283203
aF57.95447540283203
aF57.95447540283203
aF57.95447540283203
aF57.95447540283203
aF57.95447540283203
aF57.95447540283203
aF57.95447540283203
aF57.95447540283203
aF57.95447540283203
aF57.95447540283203
aF57.95447540283203
aF57.95447540283203
aF57.95447540283203
aF57.95447540283203
aF57.95447540283203
aF57.95447540283203
aF57.95447540283203
aF57.95447540283203
aF57.95447540283203
aF57.95447540283203
aF57.95447540283203
aF57.95447540283203
aF57.95447540283203
aF57.95447540283203
aF57.95447540283203
aF57.95447540283203
aF57.95447540283203
aF57.95447540283203
aF57.95447540283203
aF57.95447540283203
aF57.95447540283203
aF57.95447540283203
aF57.95447540283203
aF57.95447540283203
aF57.95447540283203
aF57.95447540283203
aF57.95447540283203
aF57.95447540283203
aF57.95447540283203
aF57.95447540283203
aF57.95447540283203
aF57.95447540283203
aF57.95447540283203
aF57.95447540283203
aF57.95447540283203
aF57.95447540283203
aF57.95447540283203
aF57.95447540283203
aF57.95447540283203
aF57.95447540283203
aF57.95447540283203
aF57.95447540283203
aF57.95447540283203
aF57.95447540283203
aF57.95447540283203
aF57.95447540283203
aF57.95447540283203
aF57.95447540283203
aF57.95447540283203
aF57.95447540283203
aF57.95447540283203
aF57.95447540283203
aF57.95447540283203
aF57.95447540283203
aF57.95447540283203
aF57.95447540283203
aF57.95447540283203
aF57.95447540283203
aF57.95447540283203
aF57.95447540283203
aF57.95447540283203
aF57.95447540283203
aF57.95447540283203
aF57.95447540283203
aF57.95447540283203
aF57.95447540283203
aF57.95447540283203
aF57.95447540283203
aF57.95447540283203
aF57.95447540283203
aF57.95447540283203
aF57.95447540283203
aF57.95447540283203
aF57.95447540283203
aF57.95447540283203
aF57.95447540283203
aF57.95447540283203
aF57.95447540283203
aF57.95447540283203
aF57.95447540283203
aF57.95447540283203
aF57.95447540283203
aF57.95447540283203
aF57.95447540283203
aF57.95447540283203
aF57.95447540283203
aF57.95447540283203
aF57.95447540283203
aF57.95447540283203
aF57.95447540283203
aF57.95447540283203
aF57.95447540283203
aF57.95447540283203
aF57.95447540283203
aF57.95447540283203
aF57.95447540283203
aF57.95447540283203
aF57.95447540283203
aF57.95447540283203
aF57.95447540283203
aF57.95447540283203
aF57.95447540283203
aF57.95447540283203
aF57.95447540283203
aF57.95447540283203
aF57.95447540283203
aF57.95447540283203
aF57.95447540283203
aF57.95447540283203
aF57.95447540283203
aF57.95447540283203
aF57.95447540283203
aF57.95447540283203
aF57.95447540283203
aF57.95447540283203
aF57.95447540283203
aF57.95447540283203
aF57.95447540283203
aF57.95447540283203
aF57.95447540283203
aF57.95447540283203
aF57.95447540283203
aF57.95447540283203
aF57.95447540283203
aF57.95447540283203
aF57.95447540283203
aF57.95447540283203
aF57.95447540283203
aF57.95447540283203
aF57.95447540283203
aF57.95447540283203
aF57.95447540283203
aF57.95447540283203
aF57.95447540283203
aF57.95447540283203
aF57.95447540283203
aF57.95447540283203
aF57.95447540283203
aF57.95447540283203
aF57.95447540283203
aF57.95447540283203
aF57.95447540283203
aF57.95447540283203
aF57.95447540283203
aF57.95447540283203
aF57.95447540283203
aF57.95447540283203
aF57.95447540283203
aF57.95447540283203
aF57.95447540283203
aF57.95447540283203
aF57.95447540283203
aF57.95447540283203
aF57.95447540283203
aF57.95447540283203
aF57.95447540283203
aF57.95447540283203
aF57.95447540283203
aF57.95447540283203
aF57.95447540283203
aF57.95447540283203
aF57.95447540283203
aF57.95447540283203
aF57.95447540283203
aF57.95447540283203
aF57.95447540283203
aF57.95447540283203
aF57.95447540283203
aF57.95447540283203
aF57.95447540283203
aF57.95447540283203
aF57.95447540283203
aF57.95447540283203
aF57.95447540283203
aF57.95447540283203
aF57.95447540283203
aF57.95447540283203
aF57.95447540283203
aF57.95447540283203
aF57.95447540283203
aF57.95447540283203
aF57.95447540283203
aF57.95447540283203
aF57.95447540283203
aF57.95447540283203
aF57.95447540283203
aF57.95447540283203
aF57.95447540283203
aF57.95447540283203
aF57.95447540283203
aF57.95447540283203
aF57.95447540283203
aF57.95447540283203
aF57.95447540283203
aF57.95447540283203
aF57.95447540283203
aF57.95447540283203
aF57.95447540283203
aF57.95447540283203
aF57.95447540283203
aF57.95447540283203
aF57.95447540283203
aF57.95447540283203
aF57.95447540283203
aF57.95447540283203
aF57.95447540283203
aF57.95447540283203
aF57.95447540283203
aF57.95447540283203
aF57.95447540283203
aF57.95447540283203
aF57.95447540283203
aF57.95447540283203
aF57.95447540283203
aF57.95447540283203
aF57.95447540283203
aF57.95447540283203
aF57.95447540283203
aF57.95447540283203
aF57.95447540283203
aF57.95447540283203
aF57.95447540283203
aF57.95447540283203
aF57.95447540283203
aF57.95447540283203
aF57.95447540283203
aF57.95447540283203
aF57.95447540283203
aF57.95447540283203
aF57.95447540283203
aF57.95447540283203
aF57.95447540283203
aF57.95447540283203
aF57.95447540283203
aF57.95447540283203
aF57.95447540283203
aF57.95447540283203
aF57.95447540283203
aF57.95447540283203
aF57.95447540283203
aF57.95447540283203
aF57.95447540283203
aF57.95447540283203
aF57.95447540283203
aF57.95447540283203
aF57.95447540283203
aF57.95447540283203
aF57.95447540283203
aF57.95447540283203
aF57.95447540283203
aF57.95447540283203
aF57.95447540283203
aF57.95447540283203
aF57.95447540283203
aF57.95447540283203
aF57.95447540283203
aF57.95447540283203
aF57.95447540283203
aF57.95447540283203
aF57.95447540283203
aF57.95447540283203
aF57.95447540283203
aF57.95447540283203
aF57.95447540283203
aF57.95447540283203
aF57.95447540283203
aF57.95447540283203
aF57.95447540283203
aF57.95447540283203
aF57.95447540283203
aF57.95447540283203
aF57.95447540283203
aF57.95447540283203
aF57.95447540283203
aF57.95447540283203
aF57.95447540283203
aF57.95447540283203
aF57.95447540283203
aF57.95447540283203
aF57.95447540283203
aF57.95447540283203
aF57.95447540283203
aF57.95447540283203
aF57.95447540283203
aF57.95447540283203
aF57.95447540283203
aF57.95447540283203
aF57.95447540283203
aF57.95447540283203
aF57.95447540283203
aF57.95447540283203
aF57.95447540283203
aF57.95447540283203
aF57.95447540283203
aF57.95447540283203
aF57.95447540283203
aF57.95447540283203
aF57.95447540283203
aF57.95447540283203
aF57.95447540283203
aF57.95447540283203
aF57.95447540283203
aF57.95447540283203
aF57.95447540283203
aF57.95447540283203
aF57.95447540283203
aF57.95447540283203
aF57.95447540283203
aF57.95447540283203
aF57.95447540283203
aF57.95447540283203
aF57.95447540283203
aF57.95447540283203
aF57.95447540283203
aF57.95447540283203
aF57.95447540283203
aF57.95447540283203
aF57.95447540283203
aF57.95447540283203
aF57.95447540283203
aF57.95447540283203
aF57.95447540283203
aF57.95447540283203
aF57.95447540283203
aF57.95447540283203
aF57.95447540283203
aF57.95447540283203
aF57.95447540283203
aF57.95447540283203
aF57.95447540283203
aF57.95447540283203
aF57.95447540283203
aF57.95447540283203
aF57.95447540283203
aF57.95447540283203
aF57.95447540283203
aF57.95447540283203
aF57.95447540283203
aF57.95447540283203
aF57.95447540283203
aF57.95447540283203
aF57.95447540283203
aF57.95447540283203
aF57.95447540283203
aF57.95447540283203
aF57.95447540283203
aF57.95447540283203
aF57.95447540283203
aF57.95447540283203
aF57.95447540283203
aF57.95447540283203
aF57.95447540283203
aF57.95447540283203
aF57.95447540283203
aF57.95447540283203
aF57.95447540283203
aF57.95447540283203
aF57.95447540283203
aF57.95447540283203
aF57.95447540283203
aF57.95447540283203
aF57.95447540283203
aF57.95447540283203
aF57.95447540283203
aF57.95447540283203
aF57.95447540283203
aF57.95447540283203
aF57.95447540283203
aF57.95447540283203
aF57.95447540283203
aF57.95447540283203
aF57.95447540283203
aF57.95447540283203
aF57.95447540283203
aF57.95447540283203
aF57.95447540283203
aF57.95447540283203
aF57.95447540283203
aF57.95447540283203
aF57.95447540283203
aF57.95447540283203
aF57.95447540283203
aF57.95447540283203
aF57.95447540283203
aF57.95447540283203
aF57.95447540283203
aF57.95447540283203
aF57.95447540283203
aF57.95447540283203
aF57.95447540283203
aF57.95447540283203
aF57.95447540283203
aF57.95447540283203
aF57.95447540283203
aF57.95447540283203
aF57.95447540283203
aF57.95447540283203
aF57.95447540283203
aF57.95447540283203
aF57.95447540283203
aF57.95447540283203
aF57.95447540283203
aF57.95447540283203
aF57.95447540283203
aF57.95447540283203
aF57.95447540283203
aF57.95447540283203
aF57.95447540283203
aF57.95447540283203
aF57.95447540283203
aF57.95447540283203
aF57.95447540283203
aF57.95447540283203
aF57.95447540283203
aF57.95447540283203
aF57.95447540283203
aF57.95447540283203
aF57.95447540283203
aF57.95447540283203
aF57.95447540283203
aF57.95447540283203
aF57.95447540283203
aF57.95447540283203
aF57.95447540283203
aF57.95447540283203
aF57.95447540283203
aF57.95447540283203
aF57.95447540283203
aF57.95447540283203
aF57.95447540283203
aF57.95447540283203
aF57.95447540283203
aF57.95447540283203
aF57.95447540283203
aF57.95447540283203
aF57.95447540283203
aF57.95447540283203
aF57.95447540283203
aF57.95447540283203
aF57.95447540283203
aF57.95447540283203
aF57.95447540283203
aF57.95447540283203
aF57.95447540283203
aF57.95447540283203
aF57.95447540283203
aF57.95447540283203
aF57.95447540283203
aF57.95447540283203
aF57.95447540283203
aF57.95447540283203
aF57.95447540283203
aF57.95447540283203
aF57.95447540283203
aF57.95447540283203
aF57.95447540283203
aF57.95447540283203
aF57.95447540283203
aF57.95447540283203
aF57.95447540283203
aF57.95447540283203
aF57.95447540283203
aF57.95447540283203
aF57.95447540283203
aF57.95447540283203
aF57.95447540283203
aF57.95447540283203
aF57.95447540283203
aF57.95447540283203
aF57.95447540283203
aF57.95447540283203
aF57.95447540283203
aF57.95447540283203
aF57.95447540283203
aF57.95447540283203
aF57.95447540283203
aF57.95447540283203
aF57.95447540283203
aF57.95447540283203
aF57.95447540283203
aF57.95447540283203
aF57.95447540283203
aF57.95447540283203
aF57.95447540283203
aF57.95447540283203
aF57.95447540283203
aF57.95447540283203
aF57.95447540283203
aF57.95447540283203
aF57.95447540283203
aF57.95447540283203
aF57.95447540283203
aF57.95447540283203
aF57.95447540283203
aF57.95447540283203
aF57.95447540283203
aF57.95447540283203
aF57.95447540283203
aF57.95447540283203
aF57.95447540283203
aF57.95447540283203
aF57.95447540283203
aF57.95447540283203
aF57.95447540283203
aF57.95447540283203
aF57.95447540283203
aF57.95447540283203
aF57.95447540283203
aF57.95447540283203
aF57.95447540283203
aF57.95447540283203
aF57.95447540283203
aF57.95447540283203
aF57.95447540283203
aF57.95447540283203
aF57.95447540283203
aF57.95447540283203
aF57.95447540283203
aF57.95447540283203
aF57.95447540283203
aF57.95447540283203
aF57.95447540283203
aF57.95447540283203
aF57.95447540283203
aF57.95447540283203
aF57.95447540283203
aF57.95447540283203
aF57.95447540283203
aF57.95447540283203
aF57.95447540283203
aF57.95447540283203
aF57.95447540283203
aF57.95447540283203
aF57.95447540283203
aF57.95447540283203
aF57.95447540283203
aF57.95447540283203
aF57.95447540283203
aF57.95447540283203
aF57.95447540283203
aF57.95447540283203
aF57.95447540283203
aF57.95447540283203
aF57.95447540283203
aF57.95447540283203
aF57.95447540283203
aF57.95447540283203
aF57.95447540283203
aF57.95447540283203
aF57.95447540283203
aF57.95447540283203
aF57.95447540283203
aF57.95447540283203
aF57.95447540283203
aF57.95447540283203
aF57.95447540283203
aF57.95447540283203
aF57.95447540283203
aF57.95447540283203
aF57.95447540283203
aF57.95447540283203
aF57.95447540283203
aF57.95447540283203
aF57.95447540283203
aF57.95447540283203
aF57.95447540283203
aF57.95447540283203
aF57.95447540283203
aF57.95447540283203
aF57.95447540283203
aF57.95447540283203
aF57.95447540283203
aF57.95447540283203
aF57.95447540283203
aF57.95447540283203
aF57.95447540283203
aF57.95447540283203
aF57.95447540283203
aF57.95447540283203
aF57.95447540283203
aF57.95447540283203
aF57.95447540283203
aF57.95447540283203
aF57.95447540283203
aF57.95447540283203
aF57.95447540283203
aF57.95447540283203
aF57.95447540283203
aF57.95447540283203
aF57.95447540283203
aF57.95447540283203
aF57.95447540283203
aF57.95447540283203
aF57.95447540283203
aF57.95447540283203
aF57.95447540283203
aF57.95447540283203
aF57.95447540283203
aF57.95447540283203
aF57.95447540283203
aF57.95447540283203
aF57.95447540283203
aF57.95447540283203
aF57.95447540283203
aF57.95447540283203
aF57.95447540283203
aF57.95447540283203
aF57.95447540283203
aF57.95447540283203
aF57.95447540283203
aF57.95447540283203
aF57.95447540283203
aF57.95447540283203
aF57.95447540283203
aF57.95447540283203
aF57.95447540283203
aF57.95447540283203
aF57.95447540283203
aF57.95447540283203
aF57.95447540283203
aF57.95447540283203
aF57.95447540283203
aF57.95447540283203
aF57.95447540283203
aF57.95447540283203
aF57.95447540283203
aF57.95447540283203
aF57.95447540283203
aF57.95447540283203
aF57.95447540283203
aF57.95447540283203
aF57.95447540283203
aF57.95447540283203
aF57.95447540283203
aF57.95447540283203
aF57.95447540283203
aF57.95447540283203
aF57.95447540283203
aF57.95447540283203
aF57.95447540283203
aF57.95447540283203
aF57.95447540283203
aF57.95447540283203
aF57.95447540283203
aF57.95447540283203
aF57.95447540283203
aF57.95447540283203
aF57.95447540283203
aF57.95447540283203
aF57.95447540283203
aF57.95447540283203
aF57.95447540283203
aF57.95447540283203
aF57.95447540283203
aF57.95447540283203
aF57.95447540283203
aF57.95447540283203
aF57.95447540283203
aF57.95447540283203
aF57.95447540283203
aF57.95447540283203
aF57.95447540283203
aF57.95447540283203
aF57.95447540283203
aF57.95447540283203
aF57.95447540283203
aF57.95447540283203
aF57.95447540283203
aF57.95447540283203
aF57.95447540283203
aF57.95447540283203
aF57.95447540283203
aF57.95447540283203
aF57.95447540283203
aF57.95447540283203
aF57.95447540283203
aF57.95447540283203
aF57.95447540283203
aF57.95447540283203
aF57.95447540283203
aF57.95447540283203
aF57.95447540283203
aF57.95447540283203
aF57.95447540283203
aF57.95447540283203
aF57.95447540283203
aF57.95447540283203
aF57.95447540283203
aF57.95447540283203
aF57.95447540283203
aF57.95447540283203
aF57.95447540283203
aF57.95447540283203
aF57.95447540283203
aF57.95447540283203
aF57.95447540283203
aF57.95447540283203
aF57.95447540283203
aF57.95447540283203
aF57.95447540283203
aF57.95447540283203
aF57.95447540283203
aF57.95447540283203
aF57.95447540283203
aF57.95447540283203
aF57.95447540283203
aF57.95447540283203
aF57.95447540283203
aF57.95447540283203
aF57.95447540283203
aF57.95447540283203
aF57.95447540283203
aF57.95447540283203
aF57.95447540283203
aF57.95447540283203
aF57.95447540283203
aF57.95447540283203
aF57.95447540283203
aF57.95447540283203
aF57.95447540283203
aF57.95447540283203
aF57.95447540283203
aF57.95447540283203
aF57.95447540283203
aF57.95447540283203
aF57.95447540283203
aF57.95447540283203
aF57.95447540283203
aF57.95447540283203
aF57.95447540283203
aF57.95447540283203
aF57.95447540283203
aF57.95447540283203
aF57.95447540283203
aF57.95447540283203
aF57.95447540283203
aF57.95447540283203
aF57.95447540283203
aF57.95447540283203
aF57.95447540283203
aF57.95447540283203
aF57.95447540283203
aF57.95447540283203
aF57.95447540283203
aF57.95447540283203
aF57.95447540283203
aF57.95447540283203
aF57.95447540283203
aF57.95447540283203
aF57.95447540283203
aF57.95447540283203
aF57.95447540283203
aF57.95447540283203
aF57.95447540283203
aF57.95447540283203
aF57.95447540283203
aF57.95447540283203
aF57.95447540283203
aF57.95447540283203
aF57.95447540283203
aF57.95447540283203
aF57.95447540283203
aF57.95447540283203
aF57.95447540283203
aF57.95447540283203
aF57.95447540283203
aF57.95447540283203
aF57.95447540283203
aF57.95447540283203
aF57.95447540283203
aF57.95447540283203
aF57.95447540283203
aF57.95447540283203
aF57.95447540283203
aF57.95447540283203
aF57.95447540283203
aF57.95447540283203
aF57.95447540283203
aF57.95447540283203
aF57.95447540283203
aF57.95447540283203
aF57.95447540283203
aF57.95447540283203
aF57.95447540283203
aF57.95447540283203
aF57.95447540283203
aF57.95447540283203
aF57.95447540283203
aF57.95447540283203
aF57.95447540283203
aF57.95447540283203
aF57.95447540283203
aF57.95447540283203
aF57.95447540283203
aF57.95447540283203
aF57.95447540283203
aF57.95447540283203
aF57.95447540283203
aF57.95447540283203
aF57.95447540283203
aF57.95447540283203
aF57.95447540283203
aF57.95447540283203
aF57.95447540283203
aF57.95447540283203
aF57.95447540283203
aF57.95447540283203
aF57.95447540283203
aF57.95447540283203
aF57.95447540283203
aF57.95447540283203
aF57.95447540283203
aF57.95447540283203
aF57.95447540283203
aF57.95447540283203
aF57.95447540283203
aF57.95447540283203
aF57.95447540283203
aF57.95447540283203
aF57.95447540283203
aF57.95447540283203
aF57.95447540283203
aF57.95447540283203
aF57.95447540283203
aF57.95447540283203
aF57.95447540283203
aF57.95447540283203
aF57.95447540283203
aF57.95447540283203
aF57.95447540283203
aF57.95447540283203
aF57.95447540283203
aF57.95447540283203
aF57.95447540283203
aF57.95447540283203
aF57.95447540283203
aF57.95447540283203
aF57.95447540283203
aF57.95447540283203
aF57.95447540283203
aF57.95447540283203
aF57.95447540283203
aF57.95447540283203
aF57.95447540283203
aF57.95447540283203
aF57.95447540283203
aF57.95447540283203
aF57.95447540283203
aF57.95447540283203
aF57.95447540283203
aF57.95447540283203
aF57.95447540283203
aF57.95447540283203
aF57.95447540283203
aF57.95447540283203
aF57.95447540283203
aF57.95447540283203
aF57.95447540283203
aF57.95447540283203
aF57.95447540283203
aF57.95447540283203
aF57.95447540283203
aF57.95447540283203
aF57.95447540283203
aF57.95447540283203
aF57.95447540283203
aF57.95447540283203
aF57.95447540283203
aF57.95447540283203
aF57.95447540283203
aF57.95447540283203
aF57.95447540283203
aF57.95447540283203
aF57.95447540283203
aF57.95447540283203
aF57.95447540283203
aF57.95447540283203
aF57.95447540283203
aF57.95447540283203
aF57.95447540283203
aF57.95447540283203
aF57.95447540283203
aF57.95447540283203
aF57.95447540283203
aF57.95447540283203
aF57.95447540283203
aF57.95447540283203
aF57.95447540283203
aF57.95447540283203
aF57.95447540283203
aF57.95447540283203
aF57.95447540283203
aF57.95447540283203
aF57.95447540283203
aF57.95447540283203
aF57.95447540283203
aF57.95447540283203
aF57.95447540283203
aF57.95447540283203
aF57.95447540283203
aF57.95447540283203
aF57.95447540283203
aF57.95447540283203
aF57.95447540283203
aF57.95447540283203
aF57.95447540283203
aF57.95447540283203
aF57.95447540283203
aF57.95447540283203
aF57.95447540283203
aF57.95447540283203
aF57.95447540283203
aF57.95447540283203
aF57.95447540283203
aF57.95447540283203
aF57.95447540283203
aF57.95447540283203
aF57.95447540283203
aF57.95447540283203
aF57.95447540283203
aF57.95447540283203
aF57.95447540283203
aF57.95447540283203
aF57.95447540283203
aF57.95447540283203
aF57.95447540283203
aF57.95447540283203
aF57.95447540283203
aF57.95447540283203
aF57.95447540283203
aF57.95447540283203
aF57.95447540283203
aF57.95447540283203
aF57.95447540283203
aF57.95447540283203
aF57.95447540283203
aF57.95447540283203
aF57.95447540283203
aF57.95447540283203
aF57.95447540283203
aF57.95447540283203
aF57.95447540283203
aF57.95447540283203
aF57.95447540283203
aF57.95447540283203
aF57.95447540283203
aF57.95447540283203
aF57.95447540283203
aF57.95447540283203
aF57.95447540283203
aF57.95447540283203
aF57.95447540283203
aF57.95447540283203
aF57.95447540283203
aF57.95447540283203
aF57.95447540283203
aF57.95447540283203
aF57.95447540283203
aF57.95447540283203
aF57.95447540283203
aF57.95447540283203
aF57.95447540283203
aF57.95447540283203
aF57.95447540283203
aF57.95447540283203
aF57.95447540283203
aF57.95447540283203
aF57.95447540283203
aF57.95447540283203
aF57.95447540283203
aF57.95447540283203
aF57.95447540283203
aF57.95447540283203
aF57.95447540283203
aF57.95447540283203
aF57.95447540283203
aF57.95447540283203
aF57.95447540283203
aF57.95447540283203
aF57.95447540283203
aF57.95447540283203
aF57.95447540283203
aF57.95447540283203
aF57.95447540283203
aF57.95447540283203
aF57.95447540283203
aF57.95447540283203
aF57.95447540283203
aF57.95447540283203
aF57.95447540283203
aF57.95447540283203
aF57.95447540283203
aF57.95447540283203
aF57.95447540283203
aF57.95447540283203
aF57.95447540283203
aF57.95447540283203
aF57.95447540283203
aF57.95447540283203
aF57.95447540283203
aF57.95447540283203
aF57.95447540283203
aF57.95447540283203
aF57.95447540283203
aF57.95447540283203
aF57.95447540283203
aF57.95447540283203
aF57.95447540283203
aF57.95447540283203
aF57.95447540283203
aF57.95447540283203
aF57.95447540283203
aF57.95447540283203
aF57.95447540283203
aF57.95447540283203
aF57.95447540283203
aF57.95447540283203
aF57.95447540283203
aF57.95447540283203
aF57.95447540283203
aF57.95447540283203
aF57.95447540283203
aF57.95447540283203
aF57.95447540283203
aF57.95447540283203
aF57.95447540283203
aF57.95447540283203
aF57.95447540283203
aF57.95447540283203
aF57.95447540283203
aF57.95447540283203
aF57.95447540283203
aF57.95447540283203
aF57.95447540283203
aF57.95447540283203
aF57.95447540283203
aF57.95447540283203
aF57.95447540283203
aF57.95447540283203
aF57.95447540283203
aF57.95447540283203
aF57.95447540283203
aF57.95447540283203
aF57.95447540283203
aF57.95447540283203
aF57.95447540283203
aF57.95447540283203
aF57.95447540283203
aF57.95447540283203
aF57.95447540283203
aF57.95447540283203
aF57.95447540283203
aF57.95447540283203
aF57.95447540283203
aF57.95447540283203
aF57.95447540283203
aF57.95447540283203
aF57.95447540283203
aF57.95447540283203
aF57.95447540283203
aF57.95447540283203
aF57.95447540283203
aF57.95447540283203
aF57.95447540283203
aF57.95447540283203
aF57.95447540283203
aF57.95447540283203
aF57.95447540283203
aF57.95447540283203
aF57.95447540283203
aF57.95447540283203
aF57.95447540283203
aF57.95447540283203
aF57.95447540283203
aF57.95447540283203
aF57.95447540283203
aF57.95447540283203
aF57.95447540283203
aF57.95447540283203
aF57.95447540283203
aF57.95447540283203
aF57.95447540283203
aF57.95447540283203
aF57.95447540283203
aF57.95447540283203
aF57.95447540283203
aF57.95447540283203
aF57.95447540283203
aF57.95447540283203
aF57.95447540283203
aF57.95447540283203
aF57.95447540283203
aF57.95447540283203
aF57.95447540283203
aF57.95447540283203
aF57.95447540283203
aF57.95447540283203
aF57.95447540283203
aF57.95447540283203
aF57.95447540283203
aF57.95447540283203
aF57.95447540283203
aF57.95447540283203
aF57.95447540283203
aF57.95447540283203
aF57.95447540283203
aF57.95447540283203
aF57.95447540283203
aF57.95447540283203
aF57.95447540283203
aF57.95447540283203
aF57.95447540283203
aF57.95447540283203
aF57.95447540283203
aF57.95447540283203
aF57.95447540283203
aF57.95447540283203
aF57.95447540283203
aF57.95447540283203
aF57.95447540283203
aF57.95447540283203
aF57.95447540283203
aF57.95447540283203
aF57.95447540283203
aF57.95447540283203
aF57.95447540283203
aF57.95447540283203
aF57.95447540283203
aF57.95447540283203
aF57.95447540283203
aF57.95447540283203
aF57.95447540283203
aF57.95447540283203
aF57.95447540283203
aF57.95447540283203
aF57.95447540283203
aF57.95447540283203
aF57.95447540283203
aF57.95447540283203
aF57.95447540283203
aF57.95447540283203
aF57.95447540283203
aF57.95447540283203
aF57.95447540283203
aF57.95447540283203
aF57.95447540283203
aF57.95447540283203
aF57.95447540283203
aF57.95447540283203
aF57.95447540283203
aF57.95447540283203
aF57.95447540283203
aF57.95447540283203
aF57.95447540283203
aF57.95447540283203
aF57.95447540283203
aF57.95447540283203
aF57.95447540283203
aF57.95447540283203
aF57.95447540283203
aF57.95447540283203
aF57.95447540283203
aF57.95447540283203
aF57.95447540283203
aF57.95447540283203
aF57.95447540283203
aF57.95447540283203
aF57.95447540283203
aF57.95447540283203
aF57.95447540283203
aF57.95447540283203
aF57.95447540283203
aF57.95447540283203
aF57.95447540283203
aF57.95447540283203
aF57.95447540283203
aF57.95447540283203
aF57.95447540283203
aF57.95447540283203
aF57.95447540283203
aF57.95447540283203
aF57.95447540283203
aF57.95447540283203
aF57.95447540283203
aF57.95447540283203
aF57.95447540283203
aF57.95447540283203
aF57.95447540283203
aF57.95447540283203
aF57.95447540283203
aF57.95447540283203
aF57.95447540283203
aF57.95447540283203
aF57.95447540283203
aF57.95447540283203
aF57.95447540283203
aF57.95447540283203
aF57.95447540283203
aF57.95447540283203
aF57.95447540283203
aF57.95447540283203
aF57.95447540283203
aF57.95447540283203
aF57.95447540283203
aF57.95447540283203
aF57.95447540283203
aF57.95447540283203
aF57.95447540283203
aF57.95447540283203
aF57.95447540283203
aF57.95447540283203
aF57.95447540283203
aF57.95447540283203
aF57.95447540283203
aF57.95447540283203
aF57.95447540283203
aF57.95447540283203
aF57.95447540283203
aF57.95447540283203
aF57.95447540283203
aF57.95447540283203
aF57.95447540283203
aF57.95447540283203
aF57.95447540283203
aF57.95447540283203
aF57.95447540283203
aF57.95447540283203
aF57.95447540283203
aF57.95447540283203
aF57.95447540283203
aF57.95447540283203
aF57.95447540283203
aF57.95447540283203
aF57.95447540283203
aF57.95447540283203
aF57.95447540283203
aF57.95447540283203
aF57.95447540283203
aF57.95447540283203
aF57.95447540283203
aF57.95447540283203
aF57.95447540283203
aF57.95447540283203
aF57.95447540283203
aF57.95447540283203
aF57.95447540283203
aF57.95447540283203
aF57.95447540283203
aF57.95447540283203
aF57.95447540283203
aF57.95447540283203
aF57.95447540283203
aF57.95447540283203
aF57.95447540283203
aF57.95447540283203
aF57.95447540283203
aF57.95447540283203
aF57.95447540283203
aF57.95447540283203
aF57.95447540283203
aF57.95447540283203
aF57.95447540283203
aF57.95447540283203
aF57.95447540283203
aF57.95447540283203
aF57.95447540283203
aF57.95447540283203
aF57.95447540283203
aF57.95447540283203
aF57.95447540283203
aF57.95447540283203
aF57.95447540283203
aF57.95447540283203
aF57.95447540283203
aF57.95447540283203
aF57.95447540283203
aF57.95447540283203
aF57.95447540283203
aF57.95447540283203
aF57.95447540283203
aF57.95447540283203
aF57.95447540283203
aF57.95447540283203
aF57.95447540283203
aF57.95447540283203
aF57.95447540283203
aF57.95447540283203
aF57.95447540283203
aF57.95447540283203
aF57.95447540283203
aF57.95447540283203
aF57.95447540283203
aF57.95447540283203
aF57.95447540283203
aF57.95447540283203
aF57.95447540283203
aF57.95447540283203
aF57.95447540283203
aF57.95447540283203
aF57.95447540283203
aF57.95447540283203
aF57.95447540283203
aF57.95447540283203
aF57.95447540283203
aF57.95447540283203
aF57.95447540283203
aF57.95447540283203
aF57.95447540283203
aF57.95447540283203
aF57.95447540283203
aF57.95447540283203
aF57.95447540283203
aF57.95447540283203
aF57.95447540283203
aF57.95447540283203
aF57.95447540283203
aF57.95447540283203
aF57.95447540283203
aF57.95447540283203
aF57.95447540283203
aF57.95447540283203
aF57.95447540283203
aF57.95447540283203
aF57.95447540283203
aF57.95447540283203
aF57.95447540283203
aF57.95447540283203
aF57.95447540283203
aF57.95447540283203
aF57.95447540283203
aF57.95447540283203
aF57.95447540283203
aF57.95447540283203
aF57.95447540283203
aF57.95447540283203
aF57.95447540283203
aF57.95447540283203
aF57.95447540283203
aF57.95447540283203
aF57.95447540283203
aF57.95447540283203
aF57.95447540283203
aF57.95447540283203
aF57.95447540283203
aF57.95447540283203
aF57.95447540283203
aF57.95447540283203
aF57.95447540283203
aF57.95447540283203
aF57.95447540283203
aF57.95447540283203
aF57.95447540283203
aF57.95447540283203
aF57.95447540283203
aF57.95447540283203
aF57.95447540283203
aF57.95447540283203
aF57.95447540283203
aF57.95447540283203
aF57.95447540283203
aF57.95447540283203
aF57.95447540283203
aF57.95447540283203
aF57.95447540283203
aF57.95447540283203
aF57.95447540283203
aF57.95447540283203
aF57.95447540283203
aF57.95447540283203
aF57.95447540283203
aF57.95447540283203
aF57.95447540283203
aF57.95447540283203
aF57.95447540283203
aF57.95447540283203
aF57.95447540283203
aF57.95447540283203
aF57.95447540283203
aF57.95447540283203
aF57.95447540283203
aF57.95447540283203
aF57.95447540283203
aF57.95447540283203
aF57.95447540283203
aF57.95447540283203
aF57.95447540283203
aF57.95447540283203
aF57.95447540283203
aF57.95447540283203
aF57.95447540283203
aF57.95447540283203
aF57.95447540283203
aF57.95447540283203
aF57.95447540283203
aF57.95447540283203
aF57.95447540283203
aF57.95447540283203
aF57.95447540283203
aF57.95447540283203
aF57.95447540283203
aF57.95447540283203
aF57.95447540283203
aF57.95447540283203
aF57.95447540283203
aF57.95447540283203
aF57.95447540283203
aF57.95447540283203
aF57.95447540283203
aF57.95447540283203
aF57.95447540283203
aF57.95447540283203
aF57.95447540283203
aF57.95447540283203
aF57.95447540283203
aF57.95447540283203
aF57.95447540283203
aF57.95447540283203
aF57.95447540283203
aF57.95447540283203
aF57.95447540283203
aF57.95447540283203
aF57.95447540283203
aF57.95447540283203
aF57.95447540283203
aF57.95447540283203
aF57.95447540283203
aF57.95447540283203
aF57.95447540283203
aF57.95447540283203
aF57.95447540283203
aF57.95447540283203
aF57.95447540283203
aF57.95447540283203
aF57.95447540283203
aF57.95447540283203
aF57.95447540283203
aF57.95447540283203
aF57.95447540283203
aF57.95447540283203
aF57.95447540283203
aF57.95447540283203
aF57.95447540283203
aF57.95447540283203
aF57.95447540283203
aF57.95447540283203
aF57.95447540283203
aF57.95447540283203
aF57.95447540283203
aF57.95447540283203
aF57.95447540283203
aF57.95447540283203
aF57.95447540283203
aF57.95447540283203
aF57.95447540283203
aF57.95447540283203
atp2
.